
stacja_pogodowa.elf:     file format elf32-avr

Sections:
Idx Name          Size      VMA       LMA       File off  Algn
  0 .data         00000020  00800100  00000f08  00000f9c  2**0
                  CONTENTS, ALLOC, LOAD, DATA
  1 .text         00000f08  00000000  00000000  00000094  2**1
                  CONTENTS, ALLOC, LOAD, READONLY, CODE
  2 .bss          00000020  00800120  00800120  00000fbc  2**0
                  ALLOC
  3 .comment      00000030  00000000  00000000  00000fbc  2**0
                  CONTENTS, READONLY
  4 .note.gnu.avr.deviceinfo 00000040  00000000  00000000  00000fec  2**2
                  CONTENTS, READONLY
  5 .debug_info   000005f4  00000000  00000000  0000102c  2**0
                  CONTENTS, READONLY, DEBUGGING
  6 .debug_abbrev 000005a2  00000000  00000000  00001620  2**0
                  CONTENTS, READONLY, DEBUGGING
  7 .debug_line   0000001a  00000000  00000000  00001bc2  2**0
                  CONTENTS, READONLY, DEBUGGING
  8 .debug_str    00000208  00000000  00000000  00001bdc  2**0
                  CONTENTS, READONLY, DEBUGGING

Disassembly of section .text:

00000000 <__vectors>:
   0:	0c 94 38 00 	jmp	0x70	; 0x70 <__ctors_end>
   4:	0c 94 55 00 	jmp	0xaa	; 0xaa <__bad_interrupt>
   8:	0c 94 55 00 	jmp	0xaa	; 0xaa <__bad_interrupt>
   c:	0c 94 55 00 	jmp	0xaa	; 0xaa <__bad_interrupt>
  10:	0c 94 55 00 	jmp	0xaa	; 0xaa <__bad_interrupt>
  14:	0c 94 55 00 	jmp	0xaa	; 0xaa <__bad_interrupt>
  18:	0c 94 55 00 	jmp	0xaa	; 0xaa <__bad_interrupt>
  1c:	0c 94 55 00 	jmp	0xaa	; 0xaa <__bad_interrupt>
  20:	0c 94 55 00 	jmp	0xaa	; 0xaa <__bad_interrupt>
  24:	0c 94 55 00 	jmp	0xaa	; 0xaa <__bad_interrupt>
  28:	0c 94 55 00 	jmp	0xaa	; 0xaa <__bad_interrupt>
  2c:	0c 94 55 00 	jmp	0xaa	; 0xaa <__bad_interrupt>
  30:	0c 94 55 00 	jmp	0xaa	; 0xaa <__bad_interrupt>
  34:	0c 94 55 00 	jmp	0xaa	; 0xaa <__bad_interrupt>
  38:	0c 94 13 07 	jmp	0xe26	; 0xe26 <__vector_14>
  3c:	0c 94 55 00 	jmp	0xaa	; 0xaa <__bad_interrupt>
  40:	0c 94 55 00 	jmp	0xaa	; 0xaa <__bad_interrupt>
  44:	0c 94 55 00 	jmp	0xaa	; 0xaa <__bad_interrupt>
  48:	0c 94 55 00 	jmp	0xaa	; 0xaa <__bad_interrupt>
  4c:	0c 94 55 00 	jmp	0xaa	; 0xaa <__bad_interrupt>
  50:	0c 94 55 00 	jmp	0xaa	; 0xaa <__bad_interrupt>
  54:	0c 94 55 00 	jmp	0xaa	; 0xaa <__bad_interrupt>
  58:	0c 94 55 00 	jmp	0xaa	; 0xaa <__bad_interrupt>
  5c:	0c 94 55 00 	jmp	0xaa	; 0xaa <__bad_interrupt>
  60:	0c 94 55 00 	jmp	0xaa	; 0xaa <__bad_interrupt>
  64:	0c 94 55 00 	jmp	0xaa	; 0xaa <__bad_interrupt>

00000068 <__trampolines_end>:
  68:	54 32       	cpi	r21, 0x24	; 36
  6a:	3a 00       	.word	0x003a	; ????

0000006c <__c.2269>:
  6c:	54 31 3a 00                                         T1:.

00000070 <__ctors_end>:
  70:	11 24       	eor	r1, r1
  72:	1f be       	out	0x3f, r1	; 63
  74:	cf ef       	ldi	r28, 0xFF	; 255
  76:	d8 e0       	ldi	r29, 0x08	; 8
  78:	de bf       	out	0x3e, r29	; 62
  7a:	cd bf       	out	0x3d, r28	; 61

0000007c <__do_copy_data>:
  7c:	11 e0       	ldi	r17, 0x01	; 1
  7e:	a0 e0       	ldi	r26, 0x00	; 0
  80:	b1 e0       	ldi	r27, 0x01	; 1
  82:	e8 e0       	ldi	r30, 0x08	; 8
  84:	ff e0       	ldi	r31, 0x0F	; 15
  86:	02 c0       	rjmp	.+4      	; 0x8c <__do_copy_data+0x10>
  88:	05 90       	lpm	r0, Z+
  8a:	0d 92       	st	X+, r0
  8c:	a0 32       	cpi	r26, 0x20	; 32
  8e:	b1 07       	cpc	r27, r17
  90:	d9 f7       	brne	.-10     	; 0x88 <__do_copy_data+0xc>

00000092 <__do_clear_bss>:
  92:	21 e0       	ldi	r18, 0x01	; 1
  94:	a0 e2       	ldi	r26, 0x20	; 32
  96:	b1 e0       	ldi	r27, 0x01	; 1
  98:	01 c0       	rjmp	.+2      	; 0x9c <.do_clear_bss_start>

0000009a <.do_clear_bss_loop>:
  9a:	1d 92       	st	X+, r1

0000009c <.do_clear_bss_start>:
  9c:	a0 34       	cpi	r26, 0x40	; 64
  9e:	b2 07       	cpc	r27, r18
  a0:	e1 f7       	brne	.-8      	; 0x9a <.do_clear_bss_loop>
  a2:	0e 94 40 06 	call	0xc80	; 0xc80 <main>
  a6:	0c 94 82 07 	jmp	0xf04	; 0xf04 <_exit>

000000aa <__bad_interrupt>:
  aa:	0c 94 00 00 	jmp	0	; 0x0 <__vectors>

000000ae <pcf8574_init>:
  ae:	0e 94 f9 02 	call	0x5f2	; 0x5f2 <i2c_init>
  b2:	85 e3       	ldi	r24, 0x35	; 53
  b4:	8a 95       	dec	r24
  b6:	f1 f7       	brne	.-4      	; 0xb4 <pcf8574_init+0x6>
  b8:	00 00       	nop
  ba:	80 e0       	ldi	r24, 0x00	; 0
  bc:	90 e0       	ldi	r25, 0x00	; 0
  be:	fc 01       	movw	r30, r24
  c0:	ee 5d       	subi	r30, 0xDE	; 222
  c2:	fe 4f       	sbci	r31, 0xFE	; 254
  c4:	10 82       	st	Z, r1
  c6:	01 96       	adiw	r24, 0x01	; 1
  c8:	88 30       	cpi	r24, 0x08	; 8
  ca:	91 05       	cpc	r25, r1
  cc:	c1 f7       	brne	.-16     	; 0xbe <pcf8574_init+0x10>
  ce:	08 95       	ret

000000d0 <pcf8574_getoutput>:
  d0:	88 30       	cpi	r24, 0x08	; 8
  d2:	30 f4       	brcc	.+12     	; 0xe0 <pcf8574_getoutput+0x10>
  d4:	e8 2f       	mov	r30, r24
  d6:	f0 e0       	ldi	r31, 0x00	; 0
  d8:	ee 5d       	subi	r30, 0xDE	; 222
  da:	fe 4f       	sbci	r31, 0xFE	; 254
  dc:	80 81       	ld	r24, Z
  de:	08 95       	ret
  e0:	8f ef       	ldi	r24, 0xFF	; 255
  e2:	08 95       	ret

000000e4 <pcf8574_getoutputpin>:
  e4:	88 30       	cpi	r24, 0x08	; 8
  e6:	88 f4       	brcc	.+34     	; 0x10a <pcf8574_getoutputpin+0x26>
  e8:	68 30       	cpi	r22, 0x08	; 8
  ea:	78 f4       	brcc	.+30     	; 0x10a <pcf8574_getoutputpin+0x26>
  ec:	e8 2f       	mov	r30, r24
  ee:	f0 e0       	ldi	r31, 0x00	; 0
  f0:	ee 5d       	subi	r30, 0xDE	; 222
  f2:	fe 4f       	sbci	r31, 0xFE	; 254
  f4:	80 81       	ld	r24, Z
  f6:	08 2e       	mov	r0, r24
  f8:	00 0c       	add	r0, r0
  fa:	99 0b       	sbc	r25, r25
  fc:	02 c0       	rjmp	.+4      	; 0x102 <pcf8574_getoutputpin+0x1e>
  fe:	95 95       	asr	r25
 100:	87 95       	ror	r24
 102:	6a 95       	dec	r22
 104:	e2 f7       	brpl	.-8      	; 0xfe <pcf8574_getoutputpin+0x1a>
 106:	81 70       	andi	r24, 0x01	; 1
 108:	08 95       	ret
 10a:	8f ef       	ldi	r24, 0xFF	; 255
 10c:	08 95       	ret

0000010e <pcf8574_setoutput>:
 10e:	cf 93       	push	r28
 110:	88 30       	cpi	r24, 0x08	; 8
 112:	88 f4       	brcc	.+34     	; 0x136 <pcf8574_setoutput+0x28>
 114:	c6 2f       	mov	r28, r22
 116:	e8 2f       	mov	r30, r24
 118:	f0 e0       	ldi	r31, 0x00	; 0
 11a:	ee 5d       	subi	r30, 0xDE	; 222
 11c:	fe 4f       	sbci	r31, 0xFE	; 254
 11e:	60 83       	st	Z, r22
 120:	89 5d       	subi	r24, 0xD9	; 217
 122:	88 0f       	add	r24, r24
 124:	0e 94 ff 02 	call	0x5fe	; 0x5fe <i2c_start>
 128:	8c 2f       	mov	r24, r28
 12a:	0e 94 52 03 	call	0x6a4	; 0x6a4 <i2c_write>
 12e:	0e 94 4a 03 	call	0x694	; 0x694 <i2c_stop>
 132:	80 e0       	ldi	r24, 0x00	; 0
 134:	01 c0       	rjmp	.+2      	; 0x138 <pcf8574_setoutput+0x2a>
 136:	8f ef       	ldi	r24, 0xFF	; 255
 138:	cf 91       	pop	r28
 13a:	08 95       	ret

0000013c <pcf8574_setoutputpins>:
 13c:	cf 93       	push	r28
 13e:	88 30       	cpi	r24, 0x08	; 8
 140:	d0 f5       	brcc	.+116    	; 0x1b6 <pcf8574_setoutputpins+0x7a>
 142:	a6 2f       	mov	r26, r22
 144:	b0 e0       	ldi	r27, 0x00	; 0
 146:	a4 1b       	sub	r26, r20
 148:	b1 09       	sbc	r27, r1
 14a:	af 3f       	cpi	r26, 0xFF	; 255
 14c:	9f ef       	ldi	r25, 0xFF	; 255
 14e:	b9 07       	cpc	r27, r25
 150:	94 f1       	brlt	.+100    	; 0x1b6 <pcf8574_setoutputpins+0x7a>
 152:	61 50       	subi	r22, 0x01	; 1
 154:	67 30       	cpi	r22, 0x07	; 7
 156:	78 f5       	brcc	.+94     	; 0x1b6 <pcf8574_setoutputpins+0x7a>
 158:	44 23       	and	r20, r20
 15a:	69 f1       	breq	.+90     	; 0x1b6 <pcf8574_setoutputpins+0x7a>
 15c:	94 2f       	mov	r25, r20
 15e:	e8 2f       	mov	r30, r24
 160:	f0 e0       	ldi	r31, 0x00	; 0
 162:	ee 5d       	subi	r30, 0xDE	; 222
 164:	fe 4f       	sbci	r31, 0xFE	; 254
 166:	c0 81       	ld	r28, Z
 168:	bd 01       	movw	r22, r26
 16a:	6f 5f       	subi	r22, 0xFF	; 255
 16c:	7f 4f       	sbci	r23, 0xFF	; 255
 16e:	02 2e       	mov	r0, r18
 170:	00 0c       	add	r0, r0
 172:	33 0b       	sbc	r19, r19
 174:	06 2e       	mov	r0, r22
 176:	01 c0       	rjmp	.+2      	; 0x17a <pcf8574_setoutputpins+0x3e>
 178:	22 0f       	add	r18, r18
 17a:	0a 94       	dec	r0
 17c:	ea f7       	brpl	.-6      	; 0x178 <pcf8574_setoutputpins+0x3c>
 17e:	41 e0       	ldi	r20, 0x01	; 1
 180:	50 e0       	ldi	r21, 0x00	; 0
 182:	02 c0       	rjmp	.+4      	; 0x188 <pcf8574_setoutputpins+0x4c>
 184:	44 0f       	add	r20, r20
 186:	55 1f       	adc	r21, r21
 188:	9a 95       	dec	r25
 18a:	e2 f7       	brpl	.-8      	; 0x184 <pcf8574_setoutputpins+0x48>
 18c:	41 50       	subi	r20, 0x01	; 1
 18e:	51 09       	sbc	r21, r1
 190:	01 c0       	rjmp	.+2      	; 0x194 <pcf8574_setoutputpins+0x58>
 192:	44 0f       	add	r20, r20
 194:	6a 95       	dec	r22
 196:	ea f7       	brpl	.-6      	; 0x192 <pcf8574_setoutputpins+0x56>
 198:	2c 27       	eor	r18, r28
 19a:	42 23       	and	r20, r18
 19c:	c4 27       	eor	r28, r20
 19e:	c0 83       	st	Z, r28
 1a0:	89 5d       	subi	r24, 0xD9	; 217
 1a2:	88 0f       	add	r24, r24
 1a4:	0e 94 ff 02 	call	0x5fe	; 0x5fe <i2c_start>
 1a8:	8c 2f       	mov	r24, r28
 1aa:	0e 94 52 03 	call	0x6a4	; 0x6a4 <i2c_write>
 1ae:	0e 94 4a 03 	call	0x694	; 0x694 <i2c_stop>
 1b2:	80 e0       	ldi	r24, 0x00	; 0
 1b4:	01 c0       	rjmp	.+2      	; 0x1b8 <pcf8574_setoutputpins+0x7c>
 1b6:	8f ef       	ldi	r24, 0xFF	; 255
 1b8:	cf 91       	pop	r28
 1ba:	08 95       	ret

000001bc <pcf8574_setoutputpin>:
 1bc:	cf 93       	push	r28
 1be:	df 93       	push	r29
 1c0:	88 30       	cpi	r24, 0x08	; 8
 1c2:	f8 f4       	brcc	.+62     	; 0x202 <pcf8574_setoutputpin+0x46>
 1c4:	68 30       	cpi	r22, 0x08	; 8
 1c6:	e8 f4       	brcc	.+58     	; 0x202 <pcf8574_setoutputpin+0x46>
 1c8:	e8 2f       	mov	r30, r24
 1ca:	f0 e0       	ldi	r31, 0x00	; 0
 1cc:	ee 5d       	subi	r30, 0xDE	; 222
 1ce:	fe 4f       	sbci	r31, 0xFE	; 254
 1d0:	90 81       	ld	r25, Z
 1d2:	c1 e0       	ldi	r28, 0x01	; 1
 1d4:	d0 e0       	ldi	r29, 0x00	; 0
 1d6:	01 c0       	rjmp	.+2      	; 0x1da <pcf8574_setoutputpin+0x1e>
 1d8:	cc 0f       	add	r28, r28
 1da:	6a 95       	dec	r22
 1dc:	ea f7       	brpl	.-6      	; 0x1d8 <pcf8574_setoutputpin+0x1c>
 1de:	44 23       	and	r20, r20
 1e0:	11 f0       	breq	.+4      	; 0x1e6 <pcf8574_setoutputpin+0x2a>
 1e2:	c9 2b       	or	r28, r25
 1e4:	02 c0       	rjmp	.+4      	; 0x1ea <pcf8574_setoutputpin+0x2e>
 1e6:	c0 95       	com	r28
 1e8:	c9 23       	and	r28, r25
 1ea:	c0 83       	st	Z, r28
 1ec:	89 5d       	subi	r24, 0xD9	; 217
 1ee:	88 0f       	add	r24, r24
 1f0:	0e 94 ff 02 	call	0x5fe	; 0x5fe <i2c_start>
 1f4:	8c 2f       	mov	r24, r28
 1f6:	0e 94 52 03 	call	0x6a4	; 0x6a4 <i2c_write>
 1fa:	0e 94 4a 03 	call	0x694	; 0x694 <i2c_stop>
 1fe:	80 e0       	ldi	r24, 0x00	; 0
 200:	01 c0       	rjmp	.+2      	; 0x204 <pcf8574_setoutputpin+0x48>
 202:	8f ef       	ldi	r24, 0xFF	; 255
 204:	df 91       	pop	r29
 206:	cf 91       	pop	r28
 208:	08 95       	ret

0000020a <pcf8574_setoutputpinhigh>:
 20a:	41 e0       	ldi	r20, 0x01	; 1
 20c:	0c 94 de 00 	jmp	0x1bc	; 0x1bc <pcf8574_setoutputpin>

00000210 <pcf8574_setoutputpinlow>:
 210:	40 e0       	ldi	r20, 0x00	; 0
 212:	0c 94 de 00 	jmp	0x1bc	; 0x1bc <pcf8574_setoutputpin>

00000216 <pcf8574_getinput>:
 216:	cf 93       	push	r28
 218:	88 30       	cpi	r24, 0x08	; 8
 21a:	70 f4       	brcc	.+28     	; 0x238 <pcf8574_getinput+0x22>
 21c:	90 e0       	ldi	r25, 0x00	; 0
 21e:	87 96       	adiw	r24, 0x27	; 39
 220:	88 0f       	add	r24, r24
 222:	99 1f       	adc	r25, r25
 224:	81 60       	ori	r24, 0x01	; 1
 226:	0e 94 ff 02 	call	0x5fe	; 0x5fe <i2c_start>
 22a:	0e 94 6d 03 	call	0x6da	; 0x6da <i2c_readNak>
 22e:	c8 2f       	mov	r28, r24
 230:	c0 95       	com	r28
 232:	0e 94 4a 03 	call	0x694	; 0x694 <i2c_stop>
 236:	01 c0       	rjmp	.+2      	; 0x23a <pcf8574_getinput+0x24>
 238:	cf ef       	ldi	r28, 0xFF	; 255
 23a:	8c 2f       	mov	r24, r28
 23c:	cf 91       	pop	r28
 23e:	08 95       	ret

00000240 <pcf8574_getinputpin>:
 240:	cf 93       	push	r28
 242:	88 30       	cpi	r24, 0x08	; 8
 244:	10 f0       	brcs	.+4      	; 0x24a <pcf8574_getinputpin+0xa>
 246:	8f ef       	ldi	r24, 0xFF	; 255
 248:	10 c0       	rjmp	.+32     	; 0x26a <pcf8574_getinputpin+0x2a>
 24a:	68 30       	cpi	r22, 0x08	; 8
 24c:	e0 f7       	brcc	.-8      	; 0x246 <pcf8574_getinputpin+0x6>
 24e:	c6 2f       	mov	r28, r22
 250:	0e 94 0b 01 	call	0x216	; 0x216 <pcf8574_getinput>
 254:	8f 3f       	cpi	r24, 0xFF	; 255
 256:	b9 f3       	breq	.-18     	; 0x246 <pcf8574_getinputpin+0x6>
 258:	08 2e       	mov	r0, r24
 25a:	00 0c       	add	r0, r0
 25c:	99 0b       	sbc	r25, r25
 25e:	02 c0       	rjmp	.+4      	; 0x264 <pcf8574_getinputpin+0x24>
 260:	95 95       	asr	r25
 262:	87 95       	ror	r24
 264:	ca 95       	dec	r28
 266:	e2 f7       	brpl	.-8      	; 0x260 <pcf8574_getinputpin+0x20>
 268:	81 70       	andi	r24, 0x01	; 1
 26a:	cf 91       	pop	r28
 26c:	08 95       	ret

0000026e <toggle_e>:
 26e:	62 e0       	ldi	r22, 0x02	; 2
 270:	80 e0       	ldi	r24, 0x00	; 0
 272:	0e 94 05 01 	call	0x20a	; 0x20a <pcf8574_setoutputpinhigh>
 276:	00 c0       	rjmp	.+0      	; 0x278 <toggle_e+0xa>
 278:	62 e0       	ldi	r22, 0x02	; 2
 27a:	80 e0       	ldi	r24, 0x00	; 0
 27c:	0c 94 08 01 	jmp	0x210	; 0x210 <pcf8574_setoutputpinlow>

00000280 <lcd_write>:
 280:	cf 93       	push	r28
 282:	c8 2f       	mov	r28, r24
 284:	80 91 20 01 	lds	r24, 0x0120
 288:	66 23       	and	r22, r22
 28a:	11 f0       	breq	.+4      	; 0x290 <lcd_write+0x10>
 28c:	81 60       	ori	r24, 0x01	; 1
 28e:	01 c0       	rjmp	.+2      	; 0x292 <lcd_write+0x12>
 290:	8e 7f       	andi	r24, 0xFE	; 254
 292:	80 93 20 01 	sts	0x0120, r24
 296:	80 91 20 01 	lds	r24, 0x0120
 29a:	8d 7f       	andi	r24, 0xFD	; 253
 29c:	80 93 20 01 	sts	0x0120, r24
 2a0:	60 91 20 01 	lds	r22, 0x0120
 2a4:	80 e0       	ldi	r24, 0x00	; 0
 2a6:	0e 94 87 00 	call	0x10e	; 0x10e <pcf8574_setoutput>
 2aa:	80 91 20 01 	lds	r24, 0x0120
 2ae:	8f 77       	andi	r24, 0x7F	; 127
 2b0:	80 93 20 01 	sts	0x0120, r24
 2b4:	80 91 20 01 	lds	r24, 0x0120
 2b8:	8f 7b       	andi	r24, 0xBF	; 191
 2ba:	80 93 20 01 	sts	0x0120, r24
 2be:	80 91 20 01 	lds	r24, 0x0120
 2c2:	8f 7d       	andi	r24, 0xDF	; 223
 2c4:	80 93 20 01 	sts	0x0120, r24
 2c8:	80 91 20 01 	lds	r24, 0x0120
 2cc:	8f 7e       	andi	r24, 0xEF	; 239
 2ce:	80 93 20 01 	sts	0x0120, r24
 2d2:	c7 ff       	sbrs	r28, 7
 2d4:	05 c0       	rjmp	.+10     	; 0x2e0 <lcd_write+0x60>
 2d6:	80 91 20 01 	lds	r24, 0x0120
 2da:	80 68       	ori	r24, 0x80	; 128
 2dc:	80 93 20 01 	sts	0x0120, r24
 2e0:	c6 ff       	sbrs	r28, 6
 2e2:	05 c0       	rjmp	.+10     	; 0x2ee <lcd_write+0x6e>
 2e4:	80 91 20 01 	lds	r24, 0x0120
 2e8:	80 64       	ori	r24, 0x40	; 64
 2ea:	80 93 20 01 	sts	0x0120, r24
 2ee:	c5 ff       	sbrs	r28, 5
 2f0:	05 c0       	rjmp	.+10     	; 0x2fc <lcd_write+0x7c>
 2f2:	80 91 20 01 	lds	r24, 0x0120
 2f6:	80 62       	ori	r24, 0x20	; 32
 2f8:	80 93 20 01 	sts	0x0120, r24
 2fc:	c4 ff       	sbrs	r28, 4
 2fe:	05 c0       	rjmp	.+10     	; 0x30a <lcd_write+0x8a>
 300:	80 91 20 01 	lds	r24, 0x0120
 304:	80 61       	ori	r24, 0x10	; 16
 306:	80 93 20 01 	sts	0x0120, r24
 30a:	60 91 20 01 	lds	r22, 0x0120
 30e:	80 e0       	ldi	r24, 0x00	; 0
 310:	0e 94 87 00 	call	0x10e	; 0x10e <pcf8574_setoutput>
 314:	0e 94 37 01 	call	0x26e	; 0x26e <toggle_e>
 318:	80 91 20 01 	lds	r24, 0x0120
 31c:	8f 77       	andi	r24, 0x7F	; 127
 31e:	80 93 20 01 	sts	0x0120, r24
 322:	80 91 20 01 	lds	r24, 0x0120
 326:	8f 7b       	andi	r24, 0xBF	; 191
 328:	80 93 20 01 	sts	0x0120, r24
 32c:	80 91 20 01 	lds	r24, 0x0120
 330:	8f 7d       	andi	r24, 0xDF	; 223
 332:	80 93 20 01 	sts	0x0120, r24
 336:	80 91 20 01 	lds	r24, 0x0120
 33a:	8f 7e       	andi	r24, 0xEF	; 239
 33c:	80 93 20 01 	sts	0x0120, r24
 340:	c3 ff       	sbrs	r28, 3
 342:	05 c0       	rjmp	.+10     	; 0x34e <lcd_write+0xce>
 344:	80 91 20 01 	lds	r24, 0x0120
 348:	80 68       	ori	r24, 0x80	; 128
 34a:	80 93 20 01 	sts	0x0120, r24
 34e:	c2 ff       	sbrs	r28, 2
 350:	05 c0       	rjmp	.+10     	; 0x35c <lcd_write+0xdc>
 352:	80 91 20 01 	lds	r24, 0x0120
 356:	80 64       	ori	r24, 0x40	; 64
 358:	80 93 20 01 	sts	0x0120, r24
 35c:	c1 ff       	sbrs	r28, 1
 35e:	05 c0       	rjmp	.+10     	; 0x36a <lcd_write+0xea>
 360:	80 91 20 01 	lds	r24, 0x0120
 364:	80 62       	ori	r24, 0x20	; 32
 366:	80 93 20 01 	sts	0x0120, r24
 36a:	c0 ff       	sbrs	r28, 0
 36c:	05 c0       	rjmp	.+10     	; 0x378 <lcd_write+0xf8>
 36e:	80 91 20 01 	lds	r24, 0x0120
 372:	80 61       	ori	r24, 0x10	; 16
 374:	80 93 20 01 	sts	0x0120, r24
 378:	60 91 20 01 	lds	r22, 0x0120
 37c:	80 e0       	ldi	r24, 0x00	; 0
 37e:	0e 94 87 00 	call	0x10e	; 0x10e <pcf8574_setoutput>
 382:	0e 94 37 01 	call	0x26e	; 0x26e <toggle_e>
 386:	80 91 20 01 	lds	r24, 0x0120
 38a:	80 61       	ori	r24, 0x10	; 16
 38c:	80 93 20 01 	sts	0x0120, r24
 390:	80 91 20 01 	lds	r24, 0x0120
 394:	80 62       	ori	r24, 0x20	; 32
 396:	80 93 20 01 	sts	0x0120, r24
 39a:	80 91 20 01 	lds	r24, 0x0120
 39e:	80 64       	ori	r24, 0x40	; 64
 3a0:	80 93 20 01 	sts	0x0120, r24
 3a4:	80 91 20 01 	lds	r24, 0x0120
 3a8:	80 68       	ori	r24, 0x80	; 128
 3aa:	80 93 20 01 	sts	0x0120, r24
 3ae:	60 91 20 01 	lds	r22, 0x0120
 3b2:	80 e0       	ldi	r24, 0x00	; 0
 3b4:	cf 91       	pop	r28
 3b6:	0c 94 87 00 	jmp	0x10e	; 0x10e <pcf8574_setoutput>

000003ba <lcd_read.constprop.0>:
 3ba:	cf 93       	push	r28
 3bc:	df 93       	push	r29
 3be:	80 91 20 01 	lds	r24, 0x0120
 3c2:	8e 7f       	andi	r24, 0xFE	; 254
 3c4:	80 93 20 01 	sts	0x0120, r24
 3c8:	80 91 20 01 	lds	r24, 0x0120
 3cc:	82 60       	ori	r24, 0x02	; 2
 3ce:	80 93 20 01 	sts	0x0120, r24
 3d2:	60 91 20 01 	lds	r22, 0x0120
 3d6:	80 e0       	ldi	r24, 0x00	; 0
 3d8:	0e 94 87 00 	call	0x10e	; 0x10e <pcf8574_setoutput>
 3dc:	62 e0       	ldi	r22, 0x02	; 2
 3de:	80 e0       	ldi	r24, 0x00	; 0
 3e0:	0e 94 05 01 	call	0x20a	; 0x20a <pcf8574_setoutputpinhigh>
 3e4:	00 c0       	rjmp	.+0      	; 0x3e6 <lcd_read.constprop.0+0x2c>
 3e6:	64 e0       	ldi	r22, 0x04	; 4
 3e8:	80 e0       	ldi	r24, 0x00	; 0
 3ea:	0e 94 72 00 	call	0xe4	; 0xe4 <pcf8574_getoutputpin>
 3ee:	d8 2f       	mov	r29, r24
 3f0:	62 e0       	ldi	r22, 0x02	; 2
 3f2:	80 e0       	ldi	r24, 0x00	; 0
 3f4:	0e 94 08 01 	call	0x210	; 0x210 <pcf8574_setoutputpinlow>
 3f8:	00 c0       	rjmp	.+0      	; 0x3fa <lcd_read.constprop.0+0x40>
 3fa:	62 e0       	ldi	r22, 0x02	; 2
 3fc:	80 e0       	ldi	r24, 0x00	; 0
 3fe:	0e 94 05 01 	call	0x20a	; 0x20a <pcf8574_setoutputpinhigh>
 402:	00 c0       	rjmp	.+0      	; 0x404 <lcd_read.constprop.0+0x4a>
 404:	64 e0       	ldi	r22, 0x04	; 4
 406:	80 e0       	ldi	r24, 0x00	; 0
 408:	0e 94 72 00 	call	0xe4	; 0xe4 <pcf8574_getoutputpin>
 40c:	8f 70       	andi	r24, 0x0F	; 15
 40e:	d2 95       	swap	r29
 410:	d0 7f       	andi	r29, 0xF0	; 240
 412:	c8 2f       	mov	r28, r24
 414:	cd 2b       	or	r28, r29
 416:	62 e0       	ldi	r22, 0x02	; 2
 418:	80 e0       	ldi	r24, 0x00	; 0
 41a:	0e 94 08 01 	call	0x210	; 0x210 <pcf8574_setoutputpinlow>
 41e:	8c 2f       	mov	r24, r28
 420:	df 91       	pop	r29
 422:	cf 91       	pop	r28
 424:	08 95       	ret

00000426 <lcd_waitbusy>:
 426:	0e 94 dd 01 	call	0x3ba	; 0x3ba <lcd_read.constprop.0>
 42a:	87 fd       	sbrc	r24, 7
 42c:	fc cf       	rjmp	.-8      	; 0x426 <lcd_waitbusy>
 42e:	88 e0       	ldi	r24, 0x08	; 8
 430:	90 e0       	ldi	r25, 0x00	; 0
 432:	01 97       	sbiw	r24, 0x01	; 1
 434:	f1 f7       	brne	.-4      	; 0x432 <lcd_waitbusy+0xc>
 436:	0c 94 dd 01 	jmp	0x3ba	; 0x3ba <lcd_read.constprop.0>

0000043a <lcd_command>:
 43a:	cf 93       	push	r28
 43c:	c8 2f       	mov	r28, r24
 43e:	0e 94 13 02 	call	0x426	; 0x426 <lcd_waitbusy>
 442:	60 e0       	ldi	r22, 0x00	; 0
 444:	8c 2f       	mov	r24, r28
 446:	cf 91       	pop	r28
 448:	0c 94 40 01 	jmp	0x280	; 0x280 <lcd_write>

0000044c <lcd_data>:
 44c:	cf 93       	push	r28
 44e:	c8 2f       	mov	r28, r24
 450:	0e 94 13 02 	call	0x426	; 0x426 <lcd_waitbusy>
 454:	61 e0       	ldi	r22, 0x01	; 1
 456:	8c 2f       	mov	r24, r28
 458:	cf 91       	pop	r28
 45a:	0c 94 40 01 	jmp	0x280	; 0x280 <lcd_write>

0000045e <lcd_gotoxy>:
 45e:	61 11       	cpse	r22, r1
 460:	02 c0       	rjmp	.+4      	; 0x466 <lcd_gotoxy+0x8>
 462:	80 58       	subi	r24, 0x80	; 128
 464:	01 c0       	rjmp	.+2      	; 0x468 <lcd_gotoxy+0xa>
 466:	80 54       	subi	r24, 0x40	; 64
 468:	0c 94 1d 02 	jmp	0x43a	; 0x43a <lcd_command>

0000046c <lcd_getxy>:
 46c:	0e 94 13 02 	call	0x426	; 0x426 <lcd_waitbusy>
 470:	90 e0       	ldi	r25, 0x00	; 0
 472:	08 95       	ret

00000474 <lcd_clrscr>:
 474:	81 e0       	ldi	r24, 0x01	; 1
 476:	0c 94 1d 02 	jmp	0x43a	; 0x43a <lcd_command>

0000047a <lcd_led>:
 47a:	88 23       	and	r24, r24
 47c:	21 f0       	breq	.+8      	; 0x486 <lcd_led+0xc>
 47e:	80 91 20 01 	lds	r24, 0x0120
 482:	87 7f       	andi	r24, 0xF7	; 247
 484:	03 c0       	rjmp	.+6      	; 0x48c <lcd_led+0x12>
 486:	80 91 20 01 	lds	r24, 0x0120
 48a:	88 60       	ori	r24, 0x08	; 8
 48c:	80 93 20 01 	sts	0x0120, r24
 490:	60 91 20 01 	lds	r22, 0x0120
 494:	80 e0       	ldi	r24, 0x00	; 0
 496:	0c 94 87 00 	jmp	0x10e	; 0x10e <pcf8574_setoutput>

0000049a <lcd_home>:
 49a:	82 e0       	ldi	r24, 0x02	; 2
 49c:	0c 94 1d 02 	jmp	0x43a	; 0x43a <lcd_command>

000004a0 <lcd_putc>:
 4a0:	cf 93       	push	r28
 4a2:	c8 2f       	mov	r28, r24
 4a4:	0e 94 13 02 	call	0x426	; 0x426 <lcd_waitbusy>
 4a8:	ca 30       	cpi	r28, 0x0A	; 10
 4aa:	49 f4       	brne	.+18     	; 0x4be <lcd_putc+0x1e>
 4ac:	80 34       	cpi	r24, 0x40	; 64
 4ae:	10 f0       	brcs	.+4      	; 0x4b4 <lcd_putc+0x14>
 4b0:	80 e0       	ldi	r24, 0x00	; 0
 4b2:	01 c0       	rjmp	.+2      	; 0x4b6 <lcd_putc+0x16>
 4b4:	80 e4       	ldi	r24, 0x40	; 64
 4b6:	80 58       	subi	r24, 0x80	; 128
 4b8:	cf 91       	pop	r28
 4ba:	0c 94 1d 02 	jmp	0x43a	; 0x43a <lcd_command>
 4be:	80 31       	cpi	r24, 0x10	; 16
 4c0:	19 f4       	brne	.+6      	; 0x4c8 <lcd_putc+0x28>
 4c2:	60 e0       	ldi	r22, 0x00	; 0
 4c4:	80 ec       	ldi	r24, 0xC0	; 192
 4c6:	04 c0       	rjmp	.+8      	; 0x4d0 <lcd_putc+0x30>
 4c8:	80 35       	cpi	r24, 0x50	; 80
 4ca:	21 f4       	brne	.+8      	; 0x4d4 <lcd_putc+0x34>
 4cc:	60 e0       	ldi	r22, 0x00	; 0
 4ce:	80 e8       	ldi	r24, 0x80	; 128
 4d0:	0e 94 40 01 	call	0x280	; 0x280 <lcd_write>
 4d4:	0e 94 13 02 	call	0x426	; 0x426 <lcd_waitbusy>
 4d8:	61 e0       	ldi	r22, 0x01	; 1
 4da:	8c 2f       	mov	r24, r28
 4dc:	cf 91       	pop	r28
 4de:	0c 94 40 01 	jmp	0x280	; 0x280 <lcd_write>

000004e2 <lcd_puts>:
 4e2:	cf 93       	push	r28
 4e4:	df 93       	push	r29
 4e6:	ec 01       	movw	r28, r24
 4e8:	89 91       	ld	r24, Y+
 4ea:	88 23       	and	r24, r24
 4ec:	19 f0       	breq	.+6      	; 0x4f4 <lcd_puts+0x12>
 4ee:	0e 94 50 02 	call	0x4a0	; 0x4a0 <lcd_putc>
 4f2:	fa cf       	rjmp	.-12     	; 0x4e8 <lcd_puts+0x6>
 4f4:	df 91       	pop	r29
 4f6:	cf 91       	pop	r28
 4f8:	08 95       	ret

000004fa <lcd_puti>:
 4fa:	cf 93       	push	r28
 4fc:	df 93       	push	r29
 4fe:	cd b7       	in	r28, 0x3d	; 61
 500:	de b7       	in	r29, 0x3e	; 62
 502:	61 97       	sbiw	r28, 0x11	; 17
 504:	0f b6       	in	r0, 0x3f	; 63
 506:	f8 94       	cli
 508:	de bf       	out	0x3e, r29	; 62
 50a:	0f be       	out	0x3f, r0	; 63
 50c:	cd bf       	out	0x3d, r28	; 61
 50e:	4a e0       	ldi	r20, 0x0A	; 10
 510:	50 e0       	ldi	r21, 0x00	; 0
 512:	be 01       	movw	r22, r28
 514:	6f 5f       	subi	r22, 0xFF	; 255
 516:	7f 4f       	sbci	r23, 0xFF	; 255
 518:	0e 94 42 07 	call	0xe84	; 0xe84 <itoa>
 51c:	0e 94 71 02 	call	0x4e2	; 0x4e2 <lcd_puts>
 520:	61 96       	adiw	r28, 0x11	; 17
 522:	0f b6       	in	r0, 0x3f	; 63
 524:	f8 94       	cli
 526:	de bf       	out	0x3e, r29	; 62
 528:	0f be       	out	0x3f, r0	; 63
 52a:	cd bf       	out	0x3d, r28	; 61
 52c:	df 91       	pop	r29
 52e:	cf 91       	pop	r28
 530:	08 95       	ret

00000532 <lcd_puts_p>:
 532:	cf 93       	push	r28
 534:	df 93       	push	r29
 536:	fc 01       	movw	r30, r24
 538:	84 91       	lpm	r24, Z
 53a:	ef 01       	movw	r28, r30
 53c:	21 96       	adiw	r28, 0x01	; 1
 53e:	88 23       	and	r24, r24
 540:	21 f0       	breq	.+8      	; 0x54a <lcd_puts_p+0x18>
 542:	0e 94 50 02 	call	0x4a0	; 0x4a0 <lcd_putc>
 546:	fe 01       	movw	r30, r28
 548:	f7 cf       	rjmp	.-18     	; 0x538 <lcd_puts_p+0x6>
 54a:	df 91       	pop	r29
 54c:	cf 91       	pop	r28
 54e:	08 95       	ret

00000550 <lcd_init>:
 550:	1f 93       	push	r17
 552:	cf 93       	push	r28
 554:	df 93       	push	r29
 556:	18 2f       	mov	r17, r24
 558:	0e 94 57 00 	call	0xae	; 0xae <pcf8574_init>
 55c:	10 92 20 01 	sts	0x0120, r1
 560:	60 91 20 01 	lds	r22, 0x0120
 564:	80 e0       	ldi	r24, 0x00	; 0
 566:	0e 94 87 00 	call	0x10e	; 0x10e <pcf8574_setoutput>
 56a:	80 e0       	ldi	r24, 0x00	; 0
 56c:	9a ef       	ldi	r25, 0xFA	; 250
 56e:	01 97       	sbiw	r24, 0x01	; 1
 570:	f1 f7       	brne	.-4      	; 0x56e <lcd_init+0x1e>
 572:	80 91 20 01 	lds	r24, 0x0120
 576:	80 62       	ori	r24, 0x20	; 32
 578:	80 93 20 01 	sts	0x0120, r24
 57c:	80 91 20 01 	lds	r24, 0x0120
 580:	80 61       	ori	r24, 0x10	; 16
 582:	80 93 20 01 	sts	0x0120, r24
 586:	60 91 20 01 	lds	r22, 0x0120
 58a:	80 e0       	ldi	r24, 0x00	; 0
 58c:	0e 94 87 00 	call	0x10e	; 0x10e <pcf8574_setoutput>
 590:	0e 94 37 01 	call	0x26e	; 0x26e <toggle_e>
 594:	80 e0       	ldi	r24, 0x00	; 0
 596:	9e e4       	ldi	r25, 0x4E	; 78
 598:	01 97       	sbiw	r24, 0x01	; 1
 59a:	f1 f7       	brne	.-4      	; 0x598 <lcd_init+0x48>
 59c:	0e 94 37 01 	call	0x26e	; 0x26e <toggle_e>
 5a0:	c0 e0       	ldi	r28, 0x00	; 0
 5a2:	d1 e0       	ldi	r29, 0x01	; 1
 5a4:	ce 01       	movw	r24, r28
 5a6:	01 97       	sbiw	r24, 0x01	; 1
 5a8:	f1 f7       	brne	.-4      	; 0x5a6 <lcd_init+0x56>
 5aa:	0e 94 37 01 	call	0x26e	; 0x26e <toggle_e>
 5ae:	ce 01       	movw	r24, r28
 5b0:	01 97       	sbiw	r24, 0x01	; 1
 5b2:	f1 f7       	brne	.-4      	; 0x5b0 <lcd_init+0x60>
 5b4:	80 91 20 01 	lds	r24, 0x0120
 5b8:	8f 7e       	andi	r24, 0xEF	; 239
 5ba:	80 93 20 01 	sts	0x0120, r24
 5be:	60 91 20 01 	lds	r22, 0x0120
 5c2:	80 e0       	ldi	r24, 0x00	; 0
 5c4:	0e 94 87 00 	call	0x10e	; 0x10e <pcf8574_setoutput>
 5c8:	0e 94 37 01 	call	0x26e	; 0x26e <toggle_e>
 5cc:	21 97       	sbiw	r28, 0x01	; 1
 5ce:	f1 f7       	brne	.-4      	; 0x5cc <lcd_init+0x7c>
 5d0:	88 e2       	ldi	r24, 0x28	; 40
 5d2:	0e 94 1d 02 	call	0x43a	; 0x43a <lcd_command>
 5d6:	88 e0       	ldi	r24, 0x08	; 8
 5d8:	0e 94 1d 02 	call	0x43a	; 0x43a <lcd_command>
 5dc:	0e 94 3a 02 	call	0x474	; 0x474 <lcd_clrscr>
 5e0:	86 e0       	ldi	r24, 0x06	; 6
 5e2:	0e 94 1d 02 	call	0x43a	; 0x43a <lcd_command>
 5e6:	81 2f       	mov	r24, r17
 5e8:	df 91       	pop	r29
 5ea:	cf 91       	pop	r28
 5ec:	1f 91       	pop	r17
 5ee:	0c 94 1d 02 	jmp	0x43a	; 0x43a <lcd_command>

000005f2 <i2c_init>:
 5f2:	10 92 b9 00 	sts	0x00B9, r1
 5f6:	8c e0       	ldi	r24, 0x0C	; 12
 5f8:	80 93 b8 00 	sts	0x00B8, r24
 5fc:	08 95       	ret

000005fe <i2c_start>:
 5fe:	94 ea       	ldi	r25, 0xA4	; 164
 600:	90 93 bc 00 	sts	0x00BC, r25
 604:	90 91 bc 00 	lds	r25, 0x00BC
 608:	97 ff       	sbrs	r25, 7
 60a:	fc cf       	rjmp	.-8      	; 0x604 <i2c_start+0x6>
 60c:	90 91 b9 00 	lds	r25, 0x00B9
 610:	98 7f       	andi	r25, 0xF8	; 248
 612:	98 30       	cpi	r25, 0x08	; 8
 614:	21 f0       	breq	.+8      	; 0x61e <i2c_start+0x20>
 616:	90 31       	cpi	r25, 0x10	; 16
 618:	11 f0       	breq	.+4      	; 0x61e <i2c_start+0x20>
 61a:	81 e0       	ldi	r24, 0x01	; 1
 61c:	08 95       	ret
 61e:	80 93 bb 00 	sts	0x00BB, r24
 622:	84 e8       	ldi	r24, 0x84	; 132
 624:	80 93 bc 00 	sts	0x00BC, r24
 628:	80 91 bc 00 	lds	r24, 0x00BC
 62c:	87 ff       	sbrs	r24, 7
 62e:	fc cf       	rjmp	.-8      	; 0x628 <i2c_start+0x2a>
 630:	80 91 b9 00 	lds	r24, 0x00B9
 634:	88 7f       	andi	r24, 0xF8	; 248
 636:	88 31       	cpi	r24, 0x18	; 24
 638:	11 f0       	breq	.+4      	; 0x63e <i2c_start+0x40>
 63a:	80 34       	cpi	r24, 0x40	; 64
 63c:	71 f7       	brne	.-36     	; 0x61a <i2c_start+0x1c>
 63e:	80 e0       	ldi	r24, 0x00	; 0
 640:	08 95       	ret

00000642 <i2c_start_wait>:
 642:	24 ea       	ldi	r18, 0xA4	; 164
 644:	34 e8       	ldi	r19, 0x84	; 132
 646:	44 e9       	ldi	r20, 0x94	; 148
 648:	20 93 bc 00 	sts	0x00BC, r18
 64c:	90 91 bc 00 	lds	r25, 0x00BC
 650:	97 ff       	sbrs	r25, 7
 652:	fc cf       	rjmp	.-8      	; 0x64c <i2c_start_wait+0xa>
 654:	90 91 b9 00 	lds	r25, 0x00B9
 658:	98 7f       	andi	r25, 0xF8	; 248
 65a:	98 30       	cpi	r25, 0x08	; 8
 65c:	11 f0       	breq	.+4      	; 0x662 <i2c_start_wait+0x20>
 65e:	90 31       	cpi	r25, 0x10	; 16
 660:	99 f7       	brne	.-26     	; 0x648 <i2c_start_wait+0x6>
 662:	80 93 bb 00 	sts	0x00BB, r24
 666:	30 93 bc 00 	sts	0x00BC, r19
 66a:	90 91 bc 00 	lds	r25, 0x00BC
 66e:	97 ff       	sbrs	r25, 7
 670:	fc cf       	rjmp	.-8      	; 0x66a <i2c_start_wait+0x28>
 672:	90 91 b9 00 	lds	r25, 0x00B9
 676:	98 7f       	andi	r25, 0xF8	; 248
 678:	90 32       	cpi	r25, 0x20	; 32
 67a:	11 f0       	breq	.+4      	; 0x680 <i2c_start_wait+0x3e>
 67c:	98 35       	cpi	r25, 0x58	; 88
 67e:	39 f4       	brne	.+14     	; 0x68e <i2c_start_wait+0x4c>
 680:	40 93 bc 00 	sts	0x00BC, r20
 684:	90 91 bc 00 	lds	r25, 0x00BC
 688:	94 fd       	sbrc	r25, 4
 68a:	fc cf       	rjmp	.-8      	; 0x684 <i2c_start_wait+0x42>
 68c:	dd cf       	rjmp	.-70     	; 0x648 <i2c_start_wait+0x6>
 68e:	08 95       	ret

00000690 <i2c_rep_start>:
 690:	0c 94 ff 02 	jmp	0x5fe	; 0x5fe <i2c_start>

00000694 <i2c_stop>:
 694:	84 e9       	ldi	r24, 0x94	; 148
 696:	80 93 bc 00 	sts	0x00BC, r24
 69a:	80 91 bc 00 	lds	r24, 0x00BC
 69e:	84 fd       	sbrc	r24, 4
 6a0:	fc cf       	rjmp	.-8      	; 0x69a <i2c_stop+0x6>
 6a2:	08 95       	ret

000006a4 <i2c_write>:
 6a4:	80 93 bb 00 	sts	0x00BB, r24
 6a8:	84 e8       	ldi	r24, 0x84	; 132
 6aa:	80 93 bc 00 	sts	0x00BC, r24
 6ae:	80 91 bc 00 	lds	r24, 0x00BC
 6b2:	87 ff       	sbrs	r24, 7
 6b4:	fc cf       	rjmp	.-8      	; 0x6ae <i2c_write+0xa>
 6b6:	90 91 b9 00 	lds	r25, 0x00B9
 6ba:	98 7f       	andi	r25, 0xF8	; 248
 6bc:	81 e0       	ldi	r24, 0x01	; 1
 6be:	98 32       	cpi	r25, 0x28	; 40
 6c0:	09 f4       	brne	.+2      	; 0x6c4 <i2c_write+0x20>
 6c2:	80 e0       	ldi	r24, 0x00	; 0
 6c4:	08 95       	ret

000006c6 <i2c_readAck>:
 6c6:	84 ec       	ldi	r24, 0xC4	; 196
 6c8:	80 93 bc 00 	sts	0x00BC, r24
 6cc:	80 91 bc 00 	lds	r24, 0x00BC
 6d0:	87 ff       	sbrs	r24, 7
 6d2:	fc cf       	rjmp	.-8      	; 0x6cc <i2c_readAck+0x6>
 6d4:	80 91 bb 00 	lds	r24, 0x00BB
 6d8:	08 95       	ret

000006da <i2c_readNak>:
 6da:	84 e8       	ldi	r24, 0x84	; 132
 6dc:	80 93 bc 00 	sts	0x00BC, r24
 6e0:	80 91 bc 00 	lds	r24, 0x00BC
 6e4:	87 ff       	sbrs	r24, 7
 6e6:	fc cf       	rjmp	.-8      	; 0x6e0 <i2c_readNak+0x6>
 6e8:	80 91 bb 00 	lds	r24, 0x00BB
 6ec:	08 95       	ret

000006ee <crc8>:
 6ee:	fc 01       	movw	r30, r24
 6f0:	68 0f       	add	r22, r24
 6f2:	79 1f       	adc	r23, r25
 6f4:	80 e0       	ldi	r24, 0x00	; 0
 6f6:	48 e1       	ldi	r20, 0x18	; 24
 6f8:	e6 17       	cp	r30, r22
 6fa:	f7 07       	cpc	r31, r23
 6fc:	81 f0       	breq	.+32     	; 0x71e <crc8+0x30>
 6fe:	21 91       	ld	r18, Z+
 700:	98 e0       	ldi	r25, 0x08	; 8
 702:	38 2f       	mov	r19, r24
 704:	32 27       	eor	r19, r18
 706:	53 2f       	mov	r21, r19
 708:	51 70       	andi	r21, 0x01	; 1
 70a:	30 fd       	sbrc	r19, 0
 70c:	84 27       	eor	r24, r20
 70e:	86 95       	lsr	r24
 710:	51 30       	cpi	r21, 0x01	; 1
 712:	09 f4       	brne	.+2      	; 0x716 <crc8+0x28>
 714:	80 68       	ori	r24, 0x80	; 128
 716:	26 95       	lsr	r18
 718:	91 50       	subi	r25, 0x01	; 1
 71a:	99 f7       	brne	.-26     	; 0x702 <crc8+0x14>
 71c:	ed cf       	rjmp	.-38     	; 0x6f8 <crc8+0xa>
 71e:	08 95       	ret

00000720 <DS18X20_meas_to_cel>:
 720:	0f 93       	push	r16
 722:	1f 93       	push	r17
 724:	cf 93       	push	r28
 726:	df 93       	push	r29
 728:	cd b7       	in	r28, 0x3d	; 61
 72a:	de b7       	in	r29, 0x3e	; 62
 72c:	60 97       	sbiw	r28, 0x10	; 16
 72e:	0f b6       	in	r0, 0x3f	; 63
 730:	f8 94       	cli
 732:	de bf       	out	0x3e, r29	; 62
 734:	0f be       	out	0x3f, r0	; 63
 736:	cd bf       	out	0x3d, r28	; 61
 738:	90 e1       	ldi	r25, 0x10	; 16
 73a:	e0 e0       	ldi	r30, 0x00	; 0
 73c:	f1 e0       	ldi	r31, 0x01	; 1
 73e:	de 01       	movw	r26, r28
 740:	11 96       	adiw	r26, 0x01	; 1
 742:	01 90       	ld	r0, Z+
 744:	0d 92       	st	X+, r0
 746:	9a 95       	dec	r25
 748:	e1 f7       	brne	.-8      	; 0x742 <DS18X20_meas_to_cel+0x22>
 74a:	db 01       	movw	r26, r22
 74c:	ed 91       	ld	r30, X+
 74e:	fc 91       	ld	r31, X
 750:	11 97       	sbiw	r26, 0x01	; 1
 752:	80 31       	cpi	r24, 0x10	; 16
 754:	59 f4       	brne	.+22     	; 0x76c <DS18X20_meas_to_cel+0x4c>
 756:	ee 7f       	andi	r30, 0xFE	; 254
 758:	93 e0       	ldi	r25, 0x03	; 3
 75a:	ee 0f       	add	r30, r30
 75c:	ff 1f       	adc	r31, r31
 75e:	9a 95       	dec	r25
 760:	e1 f7       	brne	.-8      	; 0x75a <DS18X20_meas_to_cel+0x3a>
 762:	16 96       	adiw	r26, 0x06	; 6
 764:	9c 91       	ld	r25, X
 766:	e9 1b       	sub	r30, r25
 768:	f1 09       	sbc	r31, r1
 76a:	3c 96       	adiw	r30, 0x0c	; 12
 76c:	f7 ff       	sbrs	r31, 7
 76e:	07 c0       	rjmp	.+14     	; 0x77e <DS18X20_meas_to_cel+0x5e>
 770:	91 e0       	ldi	r25, 0x01	; 1
 772:	da 01       	movw	r26, r20
 774:	9c 93       	st	X, r25
 776:	f1 95       	neg	r31
 778:	e1 95       	neg	r30
 77a:	f1 09       	sbc	r31, r1
 77c:	02 c0       	rjmp	.+4      	; 0x782 <DS18X20_meas_to_cel+0x62>
 77e:	da 01       	movw	r26, r20
 780:	1c 92       	st	X, r1
 782:	88 32       	cpi	r24, 0x28	; 40
 784:	81 f4       	brne	.+32     	; 0x7a6 <DS18X20_meas_to_cel+0x86>
 786:	db 01       	movw	r26, r22
 788:	14 96       	adiw	r26, 0x04	; 4
 78a:	8c 91       	ld	r24, X
 78c:	98 2f       	mov	r25, r24
 78e:	90 76       	andi	r25, 0x60	; 96
 790:	90 36       	cpi	r25, 0x60	; 96
 792:	49 f0       	breq	.+18     	; 0x7a6 <DS18X20_meas_to_cel+0x86>
 794:	86 ff       	sbrs	r24, 6
 796:	02 c0       	rjmp	.+4      	; 0x79c <DS18X20_meas_to_cel+0x7c>
 798:	ee 7f       	andi	r30, 0xFE	; 254
 79a:	05 c0       	rjmp	.+10     	; 0x7a6 <DS18X20_meas_to_cel+0x86>
 79c:	85 ff       	sbrs	r24, 5
 79e:	02 c0       	rjmp	.+4      	; 0x7a4 <DS18X20_meas_to_cel+0x84>
 7a0:	ec 7f       	andi	r30, 0xFC	; 252
 7a2:	01 c0       	rjmp	.+2      	; 0x7a6 <DS18X20_meas_to_cel+0x86>
 7a4:	e8 7f       	andi	r30, 0xF8	; 248
 7a6:	cf 01       	movw	r24, r30
 7a8:	44 e0       	ldi	r20, 0x04	; 4
 7aa:	96 95       	lsr	r25
 7ac:	87 95       	ror	r24
 7ae:	4a 95       	dec	r20
 7b0:	e1 f7       	brne	.-8      	; 0x7aa <DS18X20_meas_to_cel+0x8a>
 7b2:	d9 01       	movw	r26, r18
 7b4:	8c 93       	st	X, r24
 7b6:	ef 70       	andi	r30, 0x0F	; 15
 7b8:	ff 27       	eor	r31, r31
 7ba:	81 e0       	ldi	r24, 0x01	; 1
 7bc:	90 e0       	ldi	r25, 0x00	; 0
 7be:	8c 0f       	add	r24, r28
 7c0:	9d 1f       	adc	r25, r29
 7c2:	e8 0f       	add	r30, r24
 7c4:	f9 1f       	adc	r31, r25
 7c6:	80 81       	ld	r24, Z
 7c8:	d8 01       	movw	r26, r16
 7ca:	8c 93       	st	X, r24
 7cc:	80 e0       	ldi	r24, 0x00	; 0
 7ce:	60 96       	adiw	r28, 0x10	; 16
 7d0:	0f b6       	in	r0, 0x3f	; 63
 7d2:	f8 94       	cli
 7d4:	de bf       	out	0x3e, r29	; 62
 7d6:	0f be       	out	0x3f, r0	; 63
 7d8:	cd bf       	out	0x3d, r28	; 61
 7da:	df 91       	pop	r29
 7dc:	cf 91       	pop	r28
 7de:	1f 91       	pop	r17
 7e0:	0f 91       	pop	r16
 7e2:	08 95       	ret

000007e4 <DS18X20_temp_cmp>:
 7e4:	88 23       	and	r24, r24
 7e6:	19 f0       	breq	.+6      	; 0x7ee <DS18X20_temp_cmp+0xa>
 7e8:	71 95       	neg	r23
 7ea:	61 95       	neg	r22
 7ec:	71 09       	sbc	r23, r1
 7ee:	44 23       	and	r20, r20
 7f0:	19 f0       	breq	.+6      	; 0x7f8 <DS18X20_temp_cmp+0x14>
 7f2:	31 95       	neg	r19
 7f4:	21 95       	neg	r18
 7f6:	31 09       	sbc	r19, r1
 7f8:	62 17       	cp	r22, r18
 7fa:	73 07       	cpc	r23, r19
 7fc:	3c f0       	brlt	.+14     	; 0x80c <DS18X20_temp_cmp+0x28>
 7fe:	81 e0       	ldi	r24, 0x01	; 1
 800:	90 e0       	ldi	r25, 0x00	; 0
 802:	26 17       	cp	r18, r22
 804:	37 07       	cpc	r19, r23
 806:	24 f0       	brlt	.+8      	; 0x810 <DS18X20_temp_cmp+0x2c>
 808:	80 e0       	ldi	r24, 0x00	; 0
 80a:	08 95       	ret
 80c:	8f ef       	ldi	r24, 0xFF	; 255
 80e:	9f ef       	ldi	r25, 0xFF	; 255
 810:	08 95       	ret

00000812 <DS18X20_find_sensor>:
 812:	0f 93       	push	r16
 814:	1f 93       	push	r17
 816:	cf 93       	push	r28
 818:	df 93       	push	r29
 81a:	ec 01       	movw	r28, r24
 81c:	8b 01       	movw	r16, r22
 81e:	b8 01       	movw	r22, r16
 820:	88 81       	ld	r24, Y
 822:	0e 94 b0 05 	call	0xb60	; 0xb60 <ow_rom_search>
 826:	88 83       	st	Y, r24
 828:	81 50       	subi	r24, 0x01	; 1
 82a:	8d 3f       	cpi	r24, 0xFD	; 253
 82c:	30 f4       	brcc	.+12     	; 0x83a <DS18X20_find_sensor+0x28>
 82e:	f8 01       	movw	r30, r16
 830:	80 81       	ld	r24, Z
 832:	88 32       	cpi	r24, 0x28	; 40
 834:	11 f0       	breq	.+4      	; 0x83a <DS18X20_find_sensor+0x28>
 836:	80 31       	cpi	r24, 0x10	; 16
 838:	91 f7       	brne	.-28     	; 0x81e <DS18X20_find_sensor+0xc>
 83a:	df 91       	pop	r29
 83c:	cf 91       	pop	r28
 83e:	1f 91       	pop	r17
 840:	0f 91       	pop	r16
 842:	08 95       	ret

00000844 <search_sensors>:
 844:	ef 92       	push	r14
 846:	ff 92       	push	r15
 848:	1f 93       	push	r17
 84a:	cf 93       	push	r28
 84c:	df 93       	push	r29
 84e:	cd b7       	in	r28, 0x3d	; 61
 850:	de b7       	in	r29, 0x3e	; 62
 852:	29 97       	sbiw	r28, 0x09	; 9
 854:	0f b6       	in	r0, 0x3f	; 63
 856:	f8 94       	cli
 858:	de bf       	out	0x3e, r29	; 62
 85a:	0f be       	out	0x3f, r0	; 63
 85c:	cd bf       	out	0x3d, r28	; 61
 85e:	8f ef       	ldi	r24, 0xFF	; 255
 860:	89 87       	std	Y+9, r24	; 0x09
 862:	8a e2       	ldi	r24, 0x2A	; 42
 864:	e8 2e       	mov	r14, r24
 866:	81 e0       	ldi	r24, 0x01	; 1
 868:	f8 2e       	mov	r15, r24
 86a:	10 e0       	ldi	r17, 0x00	; 0
 86c:	89 85       	ldd	r24, Y+9	; 0x09
 86e:	88 23       	and	r24, r24
 870:	f9 f0       	breq	.+62     	; 0x8b0 <search_sensors+0x6c>
 872:	12 30       	cpi	r17, 0x02	; 2
 874:	e9 f0       	breq	.+58     	; 0x8b0 <search_sensors+0x6c>
 876:	be 01       	movw	r22, r28
 878:	6f 5f       	subi	r22, 0xFF	; 255
 87a:	7f 4f       	sbci	r23, 0xFF	; 255
 87c:	ce 01       	movw	r24, r28
 87e:	09 96       	adiw	r24, 0x09	; 9
 880:	0e 94 09 04 	call	0x812	; 0x812 <DS18X20_find_sensor>
 884:	89 85       	ldd	r24, Y+9	; 0x09
 886:	8e 5f       	subi	r24, 0xFE	; 254
 888:	82 30       	cpi	r24, 0x02	; 2
 88a:	90 f0       	brcs	.+36     	; 0x8b0 <search_sensors+0x6c>
 88c:	fe 01       	movw	r30, r28
 88e:	31 96       	adiw	r30, 0x01	; 1
 890:	80 e0       	ldi	r24, 0x00	; 0
 892:	90 e0       	ldi	r25, 0x00	; 0
 894:	21 91       	ld	r18, Z+
 896:	d7 01       	movw	r26, r14
 898:	a8 0f       	add	r26, r24
 89a:	b9 1f       	adc	r27, r25
 89c:	2c 93       	st	X, r18
 89e:	01 96       	adiw	r24, 0x01	; 1
 8a0:	88 30       	cpi	r24, 0x08	; 8
 8a2:	91 05       	cpc	r25, r1
 8a4:	b9 f7       	brne	.-18     	; 0x894 <search_sensors+0x50>
 8a6:	1f 5f       	subi	r17, 0xFF	; 255
 8a8:	88 e0       	ldi	r24, 0x08	; 8
 8aa:	e8 0e       	add	r14, r24
 8ac:	f1 1c       	adc	r15, r1
 8ae:	de cf       	rjmp	.-68     	; 0x86c <search_sensors+0x28>
 8b0:	81 2f       	mov	r24, r17
 8b2:	29 96       	adiw	r28, 0x09	; 9
 8b4:	0f b6       	in	r0, 0x3f	; 63
 8b6:	f8 94       	cli
 8b8:	de bf       	out	0x3e, r29	; 62
 8ba:	0f be       	out	0x3f, r0	; 63
 8bc:	cd bf       	out	0x3d, r28	; 61
 8be:	df 91       	pop	r29
 8c0:	cf 91       	pop	r28
 8c2:	1f 91       	pop	r17
 8c4:	ff 90       	pop	r15
 8c6:	ef 90       	pop	r14
 8c8:	08 95       	ret

000008ca <DS18X20_get_power_status>:
 8ca:	cf 93       	push	r28
 8cc:	df 93       	push	r29
 8ce:	ec 01       	movw	r28, r24
 8d0:	0e 94 69 05 	call	0xad2	; 0xad2 <ow_reset>
 8d4:	81 11       	cpse	r24, r1
 8d6:	0f c0       	rjmp	.+30     	; 0x8f6 <DS18X20_get_power_status+0x2c>
 8d8:	be 01       	movw	r22, r28
 8da:	84 eb       	ldi	r24, 0xB4	; 180
 8dc:	0e 94 fd 05 	call	0xbfa	; 0xbfa <ow_command>
 8e0:	81 e0       	ldi	r24, 0x01	; 1
 8e2:	0e 94 88 05 	call	0xb10	; 0xb10 <ow_bit_io>
 8e6:	c8 2f       	mov	r28, r24
 8e8:	0e 94 69 05 	call	0xad2	; 0xad2 <ow_reset>
 8ec:	81 e0       	ldi	r24, 0x01	; 1
 8ee:	c1 11       	cpse	r28, r1
 8f0:	03 c0       	rjmp	.+6      	; 0x8f8 <DS18X20_get_power_status+0x2e>
 8f2:	80 e0       	ldi	r24, 0x00	; 0
 8f4:	01 c0       	rjmp	.+2      	; 0x8f8 <DS18X20_get_power_status+0x2e>
 8f6:	81 e0       	ldi	r24, 0x01	; 1
 8f8:	df 91       	pop	r29
 8fa:	cf 91       	pop	r28
 8fc:	08 95       	ret

000008fe <DS18X20_start_meas>:
 8fe:	0f 93       	push	r16
 900:	1f 93       	push	r17
 902:	cf 93       	push	r28
 904:	df 93       	push	r29
 906:	d8 2f       	mov	r29, r24
 908:	8b 01       	movw	r16, r22
 90a:	0e 94 69 05 	call	0xad2	; 0xad2 <ow_reset>
 90e:	c8 2f       	mov	r28, r24
 910:	81 11       	cpse	r24, r1
 912:	0d c0       	rjmp	.+26     	; 0x92e <__stack+0x2f>
 914:	0e 94 60 05 	call	0xac0	; 0xac0 <ow_input_pin_state>
 918:	88 23       	and	r24, r24
 91a:	59 f0       	breq	.+22     	; 0x932 <__stack+0x33>
 91c:	b8 01       	movw	r22, r16
 91e:	84 e4       	ldi	r24, 0x44	; 68
 920:	0e 94 fd 05 	call	0xbfa	; 0xbfa <ow_command>
 924:	d1 30       	cpi	r29, 0x01	; 1
 926:	31 f0       	breq	.+12     	; 0x934 <__stack+0x35>
 928:	0e 94 63 05 	call	0xac6	; 0xac6 <ow_parasite_enable>
 92c:	03 c0       	rjmp	.+6      	; 0x934 <__stack+0x35>
 92e:	c1 e0       	ldi	r28, 0x01	; 1
 930:	01 c0       	rjmp	.+2      	; 0x934 <__stack+0x35>
 932:	c2 e0       	ldi	r28, 0x02	; 2
 934:	8c 2f       	mov	r24, r28
 936:	df 91       	pop	r29
 938:	cf 91       	pop	r28
 93a:	1f 91       	pop	r17
 93c:	0f 91       	pop	r16
 93e:	08 95       	ret

00000940 <DS18X20_read_meas>:
 940:	4f 92       	push	r4
 942:	5f 92       	push	r5
 944:	6f 92       	push	r6
 946:	7f 92       	push	r7
 948:	8f 92       	push	r8
 94a:	9f 92       	push	r9
 94c:	af 92       	push	r10
 94e:	bf 92       	push	r11
 950:	cf 92       	push	r12
 952:	df 92       	push	r13
 954:	ef 92       	push	r14
 956:	ff 92       	push	r15
 958:	0f 93       	push	r16
 95a:	1f 93       	push	r17
 95c:	cf 93       	push	r28
 95e:	df 93       	push	r29
 960:	cd b7       	in	r28, 0x3d	; 61
 962:	de b7       	in	r29, 0x3e	; 62
 964:	29 97       	sbiw	r28, 0x09	; 9
 966:	0f b6       	in	r0, 0x3f	; 63
 968:	f8 94       	cli
 96a:	de bf       	out	0x3e, r29	; 62
 96c:	0f be       	out	0x3f, r0	; 63
 96e:	cd bf       	out	0x3d, r28	; 61
 970:	6c 01       	movw	r12, r24
 972:	3b 01       	movw	r6, r22
 974:	5a 01       	movw	r10, r20
 976:	89 01       	movw	r16, r18
 978:	0e 94 69 05 	call	0xad2	; 0xad2 <ow_reset>
 97c:	81 11       	cpse	r24, r1
 97e:	24 c0       	rjmp	.+72     	; 0x9c8 <DS18X20_read_meas+0x88>
 980:	b6 01       	movw	r22, r12
 982:	8e eb       	ldi	r24, 0xBE	; 190
 984:	0e 94 fd 05 	call	0xbfa	; 0xbfa <ow_command>
 988:	ce 01       	movw	r24, r28
 98a:	01 96       	adiw	r24, 0x01	; 1
 98c:	7c 01       	movw	r14, r24
 98e:	4e 01       	movw	r8, r28
 990:	9a e0       	ldi	r25, 0x0A	; 10
 992:	89 0e       	add	r8, r25
 994:	91 1c       	adc	r9, r1
 996:	27 01       	movw	r4, r14
 998:	0e 94 ad 05 	call	0xb5a	; 0xb5a <ow_byte_rd>
 99c:	f7 01       	movw	r30, r14
 99e:	81 93       	st	Z+, r24
 9a0:	7f 01       	movw	r14, r30
 9a2:	e8 15       	cp	r30, r8
 9a4:	f9 05       	cpc	r31, r9
 9a6:	c1 f7       	brne	.-16     	; 0x998 <DS18X20_read_meas+0x58>
 9a8:	69 e0       	ldi	r22, 0x09	; 9
 9aa:	70 e0       	ldi	r23, 0x00	; 0
 9ac:	c2 01       	movw	r24, r4
 9ae:	0e 94 77 03 	call	0x6ee	; 0x6ee <crc8>
 9b2:	f8 2e       	mov	r15, r24
 9b4:	81 11       	cpse	r24, r1
 9b6:	0b c0       	rjmp	.+22     	; 0x9ce <DS18X20_read_meas+0x8e>
 9b8:	95 01       	movw	r18, r10
 9ba:	a3 01       	movw	r20, r6
 9bc:	b2 01       	movw	r22, r4
 9be:	f6 01       	movw	r30, r12
 9c0:	80 81       	ld	r24, Z
 9c2:	0e 94 90 03 	call	0x720	; 0x720 <DS18X20_meas_to_cel>
 9c6:	05 c0       	rjmp	.+10     	; 0x9d2 <DS18X20_read_meas+0x92>
 9c8:	ff 24       	eor	r15, r15
 9ca:	f3 94       	inc	r15
 9cc:	02 c0       	rjmp	.+4      	; 0x9d2 <DS18X20_read_meas+0x92>
 9ce:	83 e0       	ldi	r24, 0x03	; 3
 9d0:	f8 2e       	mov	r15, r24
 9d2:	8f 2d       	mov	r24, r15
 9d4:	29 96       	adiw	r28, 0x09	; 9
 9d6:	0f b6       	in	r0, 0x3f	; 63
 9d8:	f8 94       	cli
 9da:	de bf       	out	0x3e, r29	; 62
 9dc:	0f be       	out	0x3f, r0	; 63
 9de:	cd bf       	out	0x3d, r28	; 61
 9e0:	df 91       	pop	r29
 9e2:	cf 91       	pop	r28
 9e4:	1f 91       	pop	r17
 9e6:	0f 91       	pop	r16
 9e8:	ff 90       	pop	r15
 9ea:	ef 90       	pop	r14
 9ec:	df 90       	pop	r13
 9ee:	cf 90       	pop	r12
 9f0:	bf 90       	pop	r11
 9f2:	af 90       	pop	r10
 9f4:	9f 90       	pop	r9
 9f6:	8f 90       	pop	r8
 9f8:	7f 90       	pop	r7
 9fa:	6f 90       	pop	r6
 9fc:	5f 90       	pop	r5
 9fe:	4f 90       	pop	r4
 a00:	08 95       	ret

00000a02 <DS18X20_read_meas_single>:
 a02:	5f 92       	push	r5
 a04:	6f 92       	push	r6
 a06:	7f 92       	push	r7
 a08:	8f 92       	push	r8
 a0a:	9f 92       	push	r9
 a0c:	af 92       	push	r10
 a0e:	bf 92       	push	r11
 a10:	cf 92       	push	r12
 a12:	df 92       	push	r13
 a14:	ef 92       	push	r14
 a16:	ff 92       	push	r15
 a18:	0f 93       	push	r16
 a1a:	1f 93       	push	r17
 a1c:	cf 93       	push	r28
 a1e:	df 93       	push	r29
 a20:	cd b7       	in	r28, 0x3d	; 61
 a22:	de b7       	in	r29, 0x3e	; 62
 a24:	29 97       	sbiw	r28, 0x09	; 9
 a26:	0f b6       	in	r0, 0x3f	; 63
 a28:	f8 94       	cli
 a2a:	de bf       	out	0x3e, r29	; 62
 a2c:	0f be       	out	0x3f, r0	; 63
 a2e:	cd bf       	out	0x3d, r28	; 61
 a30:	58 2e       	mov	r5, r24
 a32:	6b 01       	movw	r12, r22
 a34:	5a 01       	movw	r10, r20
 a36:	89 01       	movw	r16, r18
 a38:	0e 94 69 05 	call	0xad2	; 0xad2 <ow_reset>
 a3c:	81 11       	cpse	r24, r1
 a3e:	24 c0       	rjmp	.+72     	; 0xa88 <DS18X20_read_meas_single+0x86>
 a40:	60 e0       	ldi	r22, 0x00	; 0
 a42:	70 e0       	ldi	r23, 0x00	; 0
 a44:	8e eb       	ldi	r24, 0xBE	; 190
 a46:	0e 94 fd 05 	call	0xbfa	; 0xbfa <ow_command>
 a4a:	ce 01       	movw	r24, r28
 a4c:	01 96       	adiw	r24, 0x01	; 1
 a4e:	7c 01       	movw	r14, r24
 a50:	4e 01       	movw	r8, r28
 a52:	9a e0       	ldi	r25, 0x0A	; 10
 a54:	89 0e       	add	r8, r25
 a56:	91 1c       	adc	r9, r1
 a58:	37 01       	movw	r6, r14
 a5a:	0e 94 ad 05 	call	0xb5a	; 0xb5a <ow_byte_rd>
 a5e:	f7 01       	movw	r30, r14
 a60:	81 93       	st	Z+, r24
 a62:	7f 01       	movw	r14, r30
 a64:	e8 15       	cp	r30, r8
 a66:	f9 05       	cpc	r31, r9
 a68:	c1 f7       	brne	.-16     	; 0xa5a <DS18X20_read_meas_single+0x58>
 a6a:	69 e0       	ldi	r22, 0x09	; 9
 a6c:	70 e0       	ldi	r23, 0x00	; 0
 a6e:	c3 01       	movw	r24, r6
 a70:	0e 94 77 03 	call	0x6ee	; 0x6ee <crc8>
 a74:	f8 2e       	mov	r15, r24
 a76:	81 11       	cpse	r24, r1
 a78:	0a c0       	rjmp	.+20     	; 0xa8e <DS18X20_read_meas_single+0x8c>
 a7a:	95 01       	movw	r18, r10
 a7c:	a6 01       	movw	r20, r12
 a7e:	b3 01       	movw	r22, r6
 a80:	85 2d       	mov	r24, r5
 a82:	0e 94 90 03 	call	0x720	; 0x720 <DS18X20_meas_to_cel>
 a86:	05 c0       	rjmp	.+10     	; 0xa92 <DS18X20_read_meas_single+0x90>
 a88:	ff 24       	eor	r15, r15
 a8a:	f3 94       	inc	r15
 a8c:	02 c0       	rjmp	.+4      	; 0xa92 <DS18X20_read_meas_single+0x90>
 a8e:	83 e0       	ldi	r24, 0x03	; 3
 a90:	f8 2e       	mov	r15, r24
 a92:	8f 2d       	mov	r24, r15
 a94:	29 96       	adiw	r28, 0x09	; 9
 a96:	0f b6       	in	r0, 0x3f	; 63
 a98:	f8 94       	cli
 a9a:	de bf       	out	0x3e, r29	; 62
 a9c:	0f be       	out	0x3f, r0	; 63
 a9e:	cd bf       	out	0x3d, r28	; 61
 aa0:	df 91       	pop	r29
 aa2:	cf 91       	pop	r28
 aa4:	1f 91       	pop	r17
 aa6:	0f 91       	pop	r16
 aa8:	ff 90       	pop	r15
 aaa:	ef 90       	pop	r14
 aac:	df 90       	pop	r13
 aae:	cf 90       	pop	r12
 ab0:	bf 90       	pop	r11
 ab2:	af 90       	pop	r10
 ab4:	9f 90       	pop	r9
 ab6:	8f 90       	pop	r8
 ab8:	7f 90       	pop	r7
 aba:	6f 90       	pop	r6
 abc:	5f 90       	pop	r5
 abe:	08 95       	ret

00000ac0 <ow_input_pin_state>:
 ac0:	83 b1       	in	r24, 0x03	; 3
 ac2:	81 70       	andi	r24, 0x01	; 1
 ac4:	08 95       	ret

00000ac6 <ow_parasite_enable>:
 ac6:	28 9a       	sbi	0x05, 0	; 5
 ac8:	20 9a       	sbi	0x04, 0	; 4
 aca:	08 95       	ret

00000acc <ow_parasite_disable>:
 acc:	28 98       	cbi	0x05, 0	; 5
 ace:	20 98       	cbi	0x04, 0	; 4
 ad0:	08 95       	ret

00000ad2 <ow_reset>:
 ad2:	28 98       	cbi	0x05, 0	; 5
 ad4:	20 9a       	sbi	0x04, 0	; 4
 ad6:	8f e7       	ldi	r24, 0x7F	; 127
 ad8:	97 e0       	ldi	r25, 0x07	; 7
 ada:	01 97       	sbiw	r24, 0x01	; 1
 adc:	f1 f7       	brne	.-4      	; 0xada <ow_reset+0x8>
 ade:	00 c0       	rjmp	.+0      	; 0xae0 <ow_reset+0xe>
 ae0:	00 00       	nop
 ae2:	9f b7       	in	r25, 0x3f	; 63
 ae4:	f8 94       	cli
 ae6:	20 98       	cbi	0x04, 0	; 4
 ae8:	e7 e0       	ldi	r30, 0x07	; 7
 aea:	f1 e0       	ldi	r31, 0x01	; 1
 aec:	31 97       	sbiw	r30, 0x01	; 1
 aee:	f1 f7       	brne	.-4      	; 0xaec <ow_reset+0x1a>
 af0:	00 c0       	rjmp	.+0      	; 0xaf2 <ow_reset+0x20>
 af2:	00 00       	nop
 af4:	83 b1       	in	r24, 0x03	; 3
 af6:	9f bf       	out	0x3f, r25	; 63
 af8:	e7 e7       	ldi	r30, 0x77	; 119
 afa:	f6 e0       	ldi	r31, 0x06	; 6
 afc:	31 97       	sbiw	r30, 0x01	; 1
 afe:	f1 f7       	brne	.-4      	; 0xafc <ow_reset+0x2a>
 b00:	00 c0       	rjmp	.+0      	; 0xb02 <ow_reset+0x30>
 b02:	00 00       	nop
 b04:	18 9b       	sbis	0x03, 0	; 3
 b06:	02 c0       	rjmp	.+4      	; 0xb0c <ow_reset+0x3a>
 b08:	81 70       	andi	r24, 0x01	; 1
 b0a:	08 95       	ret
 b0c:	81 e0       	ldi	r24, 0x01	; 1
 b0e:	08 95       	ret

00000b10 <ow_bit_io>:
 b10:	9f b7       	in	r25, 0x3f	; 63
 b12:	f8 94       	cli
 b14:	20 9a       	sbi	0x04, 0	; 4
 b16:	25 e0       	ldi	r18, 0x05	; 5
 b18:	2a 95       	dec	r18
 b1a:	f1 f7       	brne	.-4      	; 0xb18 <ow_bit_io+0x8>
 b1c:	00 00       	nop
 b1e:	81 11       	cpse	r24, r1
 b20:	20 98       	cbi	0x04, 0	; 4
 b22:	20 e5       	ldi	r18, 0x50	; 80
 b24:	2a 95       	dec	r18
 b26:	f1 f7       	brne	.-4      	; 0xb24 <ow_bit_io+0x14>
 b28:	18 9b       	sbis	0x03, 0	; 3
 b2a:	80 e0       	ldi	r24, 0x00	; 0
 b2c:	20 ef       	ldi	r18, 0xF0	; 240
 b2e:	2a 95       	dec	r18
 b30:	f1 f7       	brne	.-4      	; 0xb2e <ow_bit_io+0x1e>
 b32:	20 98       	cbi	0x04, 0	; 4
 b34:	9f bf       	out	0x3f, r25	; 63
 b36:	08 95       	ret

00000b38 <ow_byte_wr>:
 b38:	cf 93       	push	r28
 b3a:	df 93       	push	r29
 b3c:	c8 2f       	mov	r28, r24
 b3e:	d8 e0       	ldi	r29, 0x08	; 8
 b40:	8c 2f       	mov	r24, r28
 b42:	81 70       	andi	r24, 0x01	; 1
 b44:	0e 94 88 05 	call	0xb10	; 0xb10 <ow_bit_io>
 b48:	c6 95       	lsr	r28
 b4a:	81 11       	cpse	r24, r1
 b4c:	c0 68       	ori	r28, 0x80	; 128
 b4e:	d1 50       	subi	r29, 0x01	; 1
 b50:	b9 f7       	brne	.-18     	; 0xb40 <ow_byte_wr+0x8>
 b52:	8c 2f       	mov	r24, r28
 b54:	df 91       	pop	r29
 b56:	cf 91       	pop	r28
 b58:	08 95       	ret

00000b5a <ow_byte_rd>:
 b5a:	8f ef       	ldi	r24, 0xFF	; 255
 b5c:	0c 94 9c 05 	jmp	0xb38	; 0xb38 <ow_byte_wr>

00000b60 <ow_rom_search>:
 b60:	df 92       	push	r13
 b62:	ef 92       	push	r14
 b64:	ff 92       	push	r15
 b66:	0f 93       	push	r16
 b68:	1f 93       	push	r17
 b6a:	cf 93       	push	r28
 b6c:	df 93       	push	r29
 b6e:	e8 2e       	mov	r14, r24
 b70:	8b 01       	movw	r16, r22
 b72:	0e 94 69 05 	call	0xad2	; 0xad2 <ow_reset>
 b76:	81 11       	cpse	r24, r1
 b78:	35 c0       	rjmp	.+106    	; 0xbe4 <ow_rom_search+0x84>
 b7a:	80 ef       	ldi	r24, 0xF0	; 240
 b7c:	0e 94 9c 05 	call	0xb38	; 0xb38 <ow_byte_wr>
 b80:	d0 e0       	ldi	r29, 0x00	; 0
 b82:	c0 e4       	ldi	r28, 0x40	; 64
 b84:	88 ef       	ldi	r24, 0xF8	; 248
 b86:	d8 2e       	mov	r13, r24
 b88:	dc 0e       	add	r13, r28
 b8a:	81 e0       	ldi	r24, 0x01	; 1
 b8c:	0e 94 88 05 	call	0xb10	; 0xb10 <ow_bit_io>
 b90:	f8 2e       	mov	r15, r24
 b92:	81 e0       	ldi	r24, 0x01	; 1
 b94:	0e 94 88 05 	call	0xb10	; 0xb10 <ow_bit_io>
 b98:	88 23       	and	r24, r24
 b9a:	19 f0       	breq	.+6      	; 0xba2 <ow_rom_search+0x42>
 b9c:	ff 20       	and	r15, r15
 b9e:	71 f0       	breq	.+28     	; 0xbbc <ow_rom_search+0x5c>
 ba0:	23 c0       	rjmp	.+70     	; 0xbe8 <ow_rom_search+0x88>
 ba2:	f1 10       	cpse	r15, r1
 ba4:	0b c0       	rjmp	.+22     	; 0xbbc <ow_rom_search+0x5c>
 ba6:	ce 15       	cp	r28, r14
 ba8:	30 f0       	brcs	.+12     	; 0xbb6 <ow_rom_search+0x56>
 baa:	f8 01       	movw	r30, r16
 bac:	80 81       	ld	r24, Z
 bae:	80 ff       	sbrs	r24, 0
 bb0:	05 c0       	rjmp	.+10     	; 0xbbc <ow_rom_search+0x5c>
 bb2:	ce 15       	cp	r28, r14
 bb4:	19 f0       	breq	.+6      	; 0xbbc <ow_rom_search+0x5c>
 bb6:	dc 2f       	mov	r29, r28
 bb8:	ff 24       	eor	r15, r15
 bba:	f3 94       	inc	r15
 bbc:	8f 2d       	mov	r24, r15
 bbe:	0e 94 88 05 	call	0xb10	; 0xb10 <ow_bit_io>
 bc2:	f8 01       	movw	r30, r16
 bc4:	80 81       	ld	r24, Z
 bc6:	86 95       	lsr	r24
 bc8:	ff 20       	and	r15, r15
 bca:	11 f0       	breq	.+4      	; 0xbd0 <ow_rom_search+0x70>
 bcc:	80 68       	ori	r24, 0x80	; 128
 bce:	f8 01       	movw	r30, r16
 bd0:	80 83       	st	Z, r24
 bd2:	c1 50       	subi	r28, 0x01	; 1
 bd4:	cd 11       	cpse	r28, r13
 bd6:	d9 cf       	rjmp	.-78     	; 0xb8a <ow_rom_search+0x2a>
 bd8:	0f 5f       	subi	r16, 0xFF	; 255
 bda:	1f 4f       	sbci	r17, 0xFF	; 255
 bdc:	c1 11       	cpse	r28, r1
 bde:	d2 cf       	rjmp	.-92     	; 0xb84 <ow_rom_search+0x24>
 be0:	8d 2f       	mov	r24, r29
 be2:	03 c0       	rjmp	.+6      	; 0xbea <ow_rom_search+0x8a>
 be4:	8f ef       	ldi	r24, 0xFF	; 255
 be6:	01 c0       	rjmp	.+2      	; 0xbea <ow_rom_search+0x8a>
 be8:	8e ef       	ldi	r24, 0xFE	; 254
 bea:	df 91       	pop	r29
 bec:	cf 91       	pop	r28
 bee:	1f 91       	pop	r17
 bf0:	0f 91       	pop	r16
 bf2:	ff 90       	pop	r15
 bf4:	ef 90       	pop	r14
 bf6:	df 90       	pop	r13
 bf8:	08 95       	ret

00000bfa <ow_command>:
 bfa:	ef 92       	push	r14
 bfc:	ff 92       	push	r15
 bfe:	1f 93       	push	r17
 c00:	cf 93       	push	r28
 c02:	df 93       	push	r29
 c04:	18 2f       	mov	r17, r24
 c06:	eb 01       	movw	r28, r22
 c08:	0e 94 69 05 	call	0xad2	; 0xad2 <ow_reset>
 c0c:	20 97       	sbiw	r28, 0x00	; 0
 c0e:	71 f0       	breq	.+28     	; 0xc2c <ow_command+0x32>
 c10:	85 e5       	ldi	r24, 0x55	; 85
 c12:	0e 94 9c 05 	call	0xb38	; 0xb38 <ow_byte_wr>
 c16:	7e 01       	movw	r14, r28
 c18:	88 e0       	ldi	r24, 0x08	; 8
 c1a:	e8 0e       	add	r14, r24
 c1c:	f1 1c       	adc	r15, r1
 c1e:	89 91       	ld	r24, Y+
 c20:	0e 94 9c 05 	call	0xb38	; 0xb38 <ow_byte_wr>
 c24:	ce 15       	cp	r28, r14
 c26:	df 05       	cpc	r29, r15
 c28:	d1 f7       	brne	.-12     	; 0xc1e <ow_command+0x24>
 c2a:	03 c0       	rjmp	.+6      	; 0xc32 <ow_command+0x38>
 c2c:	8c ec       	ldi	r24, 0xCC	; 204
 c2e:	0e 94 9c 05 	call	0xb38	; 0xb38 <ow_byte_wr>
 c32:	81 2f       	mov	r24, r17
 c34:	df 91       	pop	r29
 c36:	cf 91       	pop	r28
 c38:	1f 91       	pop	r17
 c3a:	ff 90       	pop	r15
 c3c:	ef 90       	pop	r14
 c3e:	0c 94 9c 05 	jmp	0xb38	; 0xb38 <ow_byte_wr>

00000c42 <display_temp>:
 c42:	0e 94 2f 02 	call	0x45e	; 0x45e <lcd_gotoxy>
 c46:	80 91 3d 01 	lds	r24, 0x013D
 c4a:	88 23       	and	r24, r24
 c4c:	19 f0       	breq	.+6      	; 0xc54 <display_temp+0x12>
 c4e:	80 e1       	ldi	r24, 0x10	; 16
 c50:	91 e0       	ldi	r25, 0x01	; 1
 c52:	02 c0       	rjmp	.+4      	; 0xc58 <display_temp+0x16>
 c54:	86 e1       	ldi	r24, 0x16	; 22
 c56:	91 e0       	ldi	r25, 0x01	; 1
 c58:	0e 94 71 02 	call	0x4e2	; 0x4e2 <lcd_puts>
 c5c:	80 91 3e 01 	lds	r24, 0x013E
 c60:	90 e0       	ldi	r25, 0x00	; 0
 c62:	0e 94 7d 02 	call	0x4fa	; 0x4fa <lcd_puti>
 c66:	82 e1       	ldi	r24, 0x12	; 18
 c68:	91 e0       	ldi	r25, 0x01	; 1
 c6a:	0e 94 71 02 	call	0x4e2	; 0x4e2 <lcd_puts>
 c6e:	80 91 3b 01 	lds	r24, 0x013B
 c72:	90 e0       	ldi	r25, 0x00	; 0
 c74:	0e 94 7d 02 	call	0x4fa	; 0x4fa <lcd_puti>
 c78:	84 e1       	ldi	r24, 0x14	; 20
 c7a:	91 e0       	ldi	r25, 0x01	; 1
 c7c:	0c 94 71 02 	jmp	0x4e2	; 0x4e2 <lcd_puts>

00000c80 <main>:
 c80:	38 9a       	sbi	0x07, 0	; 7
 c82:	84 b5       	in	r24, 0x24	; 36
 c84:	82 60       	ori	r24, 0x02	; 2
 c86:	84 bd       	out	0x24, r24	; 36
 c88:	85 b5       	in	r24, 0x25	; 37
 c8a:	85 60       	ori	r24, 0x05	; 5
 c8c:	85 bd       	out	0x25, r24	; 37
 c8e:	8b e9       	ldi	r24, 0x9B	; 155
 c90:	87 bd       	out	0x27, r24	; 39
 c92:	80 91 6e 00 	lds	r24, 0x006E
 c96:	82 60       	ori	r24, 0x02	; 2
 c98:	80 93 6e 00 	sts	0x006E, r24
 c9c:	8c e0       	ldi	r24, 0x0C	; 12
 c9e:	0e 94 a8 02 	call	0x550	; 0x550 <lcd_init>
 ca2:	80 e0       	ldi	r24, 0x00	; 0
 ca4:	0e 94 3d 02 	call	0x47a	; 0x47a <lcd_led>
 ca8:	0e 94 22 04 	call	0x844	; 0x844 <search_sensors>
 cac:	80 93 3f 01 	sts	0x013F, r24
 cb0:	60 e0       	ldi	r22, 0x00	; 0
 cb2:	70 e0       	ldi	r23, 0x00	; 0
 cb4:	81 e0       	ldi	r24, 0x01	; 1
 cb6:	0e 94 7f 04 	call	0x8fe	; 0x8fe <DS18X20_start_meas>
 cba:	2f ef       	ldi	r18, 0xFF	; 255
 cbc:	8e e9       	ldi	r24, 0x9E	; 158
 cbe:	94 e2       	ldi	r25, 0x24	; 36
 cc0:	21 50       	subi	r18, 0x01	; 1
 cc2:	80 40       	sbci	r24, 0x00	; 0
 cc4:	90 40       	sbci	r25, 0x00	; 0
 cc6:	e1 f7       	brne	.-8      	; 0xcc0 <main+0x40>
 cc8:	00 c0       	rjmp	.+0      	; 0xcca <main+0x4a>
 cca:	00 00       	nop
 ccc:	2b e3       	ldi	r18, 0x3B	; 59
 cce:	31 e0       	ldi	r19, 0x01	; 1
 cd0:	4e e3       	ldi	r20, 0x3E	; 62
 cd2:	51 e0       	ldi	r21, 0x01	; 1
 cd4:	6d e3       	ldi	r22, 0x3D	; 61
 cd6:	71 e0       	ldi	r23, 0x01	; 1
 cd8:	8a e2       	ldi	r24, 0x2A	; 42
 cda:	91 e0       	ldi	r25, 0x01	; 1
 cdc:	0e 94 a0 04 	call	0x940	; 0x940 <DS18X20_read_meas>
 ce0:	60 e0       	ldi	r22, 0x00	; 0
 ce2:	81 11       	cpse	r24, r1
 ce4:	04 c0       	rjmp	.+8      	; 0xcee <main+0x6e>
 ce6:	83 e0       	ldi	r24, 0x03	; 3
 ce8:	0e 94 21 06 	call	0xc42	; 0xc42 <display_temp>
 cec:	07 c0       	rjmp	.+14     	; 0xcfc <main+0x7c>
 cee:	83 e0       	ldi	r24, 0x03	; 3
 cf0:	0e 94 2f 02 	call	0x45e	; 0x45e <lcd_gotoxy>
 cf4:	88 e1       	ldi	r24, 0x18	; 24
 cf6:	91 e0       	ldi	r25, 0x01	; 1
 cf8:	0e 94 71 02 	call	0x4e2	; 0x4e2 <lcd_puts>
 cfc:	2b e3       	ldi	r18, 0x3B	; 59
 cfe:	31 e0       	ldi	r19, 0x01	; 1
 d00:	4e e3       	ldi	r20, 0x3E	; 62
 d02:	51 e0       	ldi	r21, 0x01	; 1
 d04:	6d e3       	ldi	r22, 0x3D	; 61
 d06:	71 e0       	ldi	r23, 0x01	; 1
 d08:	82 e3       	ldi	r24, 0x32	; 50
 d0a:	91 e0       	ldi	r25, 0x01	; 1
 d0c:	0e 94 a0 04 	call	0x940	; 0x940 <DS18X20_read_meas>
 d10:	61 e0       	ldi	r22, 0x01	; 1
 d12:	81 11       	cpse	r24, r1
 d14:	04 c0       	rjmp	.+8      	; 0xd1e <main+0x9e>
 d16:	83 e0       	ldi	r24, 0x03	; 3
 d18:	0e 94 21 06 	call	0xc42	; 0xc42 <display_temp>
 d1c:	07 c0       	rjmp	.+14     	; 0xd2c <main+0xac>
 d1e:	83 e0       	ldi	r24, 0x03	; 3
 d20:	0e 94 2f 02 	call	0x45e	; 0x45e <lcd_gotoxy>
 d24:	88 e1       	ldi	r24, 0x18	; 24
 d26:	91 e0       	ldi	r25, 0x01	; 1
 d28:	0e 94 71 02 	call	0x4e2	; 0x4e2 <lcd_puts>
 d2c:	78 94       	sei
 d2e:	60 e0       	ldi	r22, 0x00	; 0
 d30:	80 e0       	ldi	r24, 0x00	; 0
 d32:	0e 94 2f 02 	call	0x45e	; 0x45e <lcd_gotoxy>
 d36:	8c e6       	ldi	r24, 0x6C	; 108
 d38:	90 e0       	ldi	r25, 0x00	; 0
 d3a:	0e 94 99 02 	call	0x532	; 0x532 <lcd_puts_p>
 d3e:	61 e0       	ldi	r22, 0x01	; 1
 d40:	80 e0       	ldi	r24, 0x00	; 0
 d42:	0e 94 2f 02 	call	0x45e	; 0x45e <lcd_gotoxy>
 d46:	88 e6       	ldi	r24, 0x68	; 104
 d48:	90 e0       	ldi	r25, 0x00	; 0
 d4a:	0e 94 99 02 	call	0x532	; 0x532 <lcd_puts_p>
 d4e:	c3 e0       	ldi	r28, 0x03	; 3
 d50:	80 91 3c 01 	lds	r24, 0x013C
 d54:	88 23       	and	r24, r24
 d56:	e1 f3       	breq	.-8      	; 0xd50 <main+0xd0>
 d58:	80 91 3a 01 	lds	r24, 0x013A
 d5c:	6c 2f       	mov	r22, r28
 d5e:	0e 94 36 07 	call	0xe6c	; 0xe6c <__udivmodqi4>
 d62:	91 11       	cpse	r25, r1
 d64:	14 c0       	rjmp	.+40     	; 0xd8e <main+0x10e>
 d66:	ea e2       	ldi	r30, 0x2A	; 42
 d68:	f1 e0       	ldi	r31, 0x01	; 1
 d6a:	11 92       	st	Z+, r1
 d6c:	21 e0       	ldi	r18, 0x01	; 1
 d6e:	ea 33       	cpi	r30, 0x3A	; 58
 d70:	f2 07       	cpc	r31, r18
 d72:	d9 f7       	brne	.-10     	; 0xd6a <main+0xea>
 d74:	0e 94 22 04 	call	0x844	; 0x844 <search_sensors>
 d78:	80 93 3f 01 	sts	0x013F, r24
 d7c:	60 e0       	ldi	r22, 0x00	; 0
 d7e:	8f e0       	ldi	r24, 0x0F	; 15
 d80:	0e 94 2f 02 	call	0x45e	; 0x45e <lcd_gotoxy>
 d84:	80 91 3f 01 	lds	r24, 0x013F
 d88:	90 e0       	ldi	r25, 0x00	; 0
 d8a:	0e 94 7d 02 	call	0x4fa	; 0x4fa <lcd_puti>
 d8e:	80 91 3a 01 	lds	r24, 0x013A
 d92:	6c 2f       	mov	r22, r28
 d94:	0e 94 36 07 	call	0xe6c	; 0xe6c <__udivmodqi4>
 d98:	91 30       	cpi	r25, 0x01	; 1
 d9a:	29 f4       	brne	.+10     	; 0xda6 <main+0x126>
 d9c:	60 e0       	ldi	r22, 0x00	; 0
 d9e:	70 e0       	ldi	r23, 0x00	; 0
 da0:	81 e0       	ldi	r24, 0x01	; 1
 da2:	0e 94 7f 04 	call	0x8fe	; 0x8fe <DS18X20_start_meas>
 da6:	80 91 3a 01 	lds	r24, 0x013A
 daa:	6c 2f       	mov	r22, r28
 dac:	0e 94 36 07 	call	0xe6c	; 0xe6c <__udivmodqi4>
 db0:	92 30       	cpi	r25, 0x02	; 2
 db2:	81 f5       	brne	.+96     	; 0xe14 <main+0x194>
 db4:	2b e3       	ldi	r18, 0x3B	; 59
 db6:	31 e0       	ldi	r19, 0x01	; 1
 db8:	4e e3       	ldi	r20, 0x3E	; 62
 dba:	51 e0       	ldi	r21, 0x01	; 1
 dbc:	6d e3       	ldi	r22, 0x3D	; 61
 dbe:	71 e0       	ldi	r23, 0x01	; 1
 dc0:	8a e2       	ldi	r24, 0x2A	; 42
 dc2:	91 e0       	ldi	r25, 0x01	; 1
 dc4:	0e 94 a0 04 	call	0x940	; 0x940 <DS18X20_read_meas>
 dc8:	60 e0       	ldi	r22, 0x00	; 0
 dca:	81 11       	cpse	r24, r1
 dcc:	04 c0       	rjmp	.+8      	; 0xdd6 <main+0x156>
 dce:	83 e0       	ldi	r24, 0x03	; 3
 dd0:	0e 94 21 06 	call	0xc42	; 0xc42 <display_temp>
 dd4:	07 c0       	rjmp	.+14     	; 0xde4 <main+0x164>
 dd6:	83 e0       	ldi	r24, 0x03	; 3
 dd8:	0e 94 2f 02 	call	0x45e	; 0x45e <lcd_gotoxy>
 ddc:	88 e1       	ldi	r24, 0x18	; 24
 dde:	91 e0       	ldi	r25, 0x01	; 1
 de0:	0e 94 71 02 	call	0x4e2	; 0x4e2 <lcd_puts>
 de4:	2b e3       	ldi	r18, 0x3B	; 59
 de6:	31 e0       	ldi	r19, 0x01	; 1
 de8:	4e e3       	ldi	r20, 0x3E	; 62
 dea:	51 e0       	ldi	r21, 0x01	; 1
 dec:	6d e3       	ldi	r22, 0x3D	; 61
 dee:	71 e0       	ldi	r23, 0x01	; 1
 df0:	82 e3       	ldi	r24, 0x32	; 50
 df2:	91 e0       	ldi	r25, 0x01	; 1
 df4:	0e 94 a0 04 	call	0x940	; 0x940 <DS18X20_read_meas>
 df8:	61 e0       	ldi	r22, 0x01	; 1
 dfa:	81 11       	cpse	r24, r1
 dfc:	04 c0       	rjmp	.+8      	; 0xe06 <main+0x186>
 dfe:	83 e0       	ldi	r24, 0x03	; 3
 e00:	0e 94 21 06 	call	0xc42	; 0xc42 <display_temp>
 e04:	07 c0       	rjmp	.+14     	; 0xe14 <main+0x194>
 e06:	83 e0       	ldi	r24, 0x03	; 3
 e08:	0e 94 2f 02 	call	0x45e	; 0x45e <lcd_gotoxy>
 e0c:	88 e1       	ldi	r24, 0x18	; 24
 e0e:	91 e0       	ldi	r25, 0x01	; 1
 e10:	0e 94 71 02 	call	0x4e2	; 0x4e2 <lcd_puts>
 e14:	80 91 3a 01 	lds	r24, 0x013A
 e18:	98 b1       	in	r25, 0x08	; 8
 e1a:	81 e0       	ldi	r24, 0x01	; 1
 e1c:	89 27       	eor	r24, r25
 e1e:	88 b9       	out	0x08, r24	; 8
 e20:	10 92 3c 01 	sts	0x013C, r1
 e24:	95 cf       	rjmp	.-214    	; 0xd50 <main+0xd0>

00000e26 <__vector_14>:
 e26:	1f 92       	push	r1
 e28:	0f 92       	push	r0
 e2a:	0f b6       	in	r0, 0x3f	; 63
 e2c:	0f 92       	push	r0
 e2e:	11 24       	eor	r1, r1
 e30:	8f 93       	push	r24
 e32:	80 91 21 01 	lds	r24, 0x0121
 e36:	8f 5f       	subi	r24, 0xFF	; 255
 e38:	80 93 21 01 	sts	0x0121, r24
 e3c:	84 36       	cpi	r24, 0x64	; 100
 e3e:	80 f0       	brcs	.+32     	; 0xe60 <__vector_14+0x3a>
 e40:	81 e0       	ldi	r24, 0x01	; 1
 e42:	80 93 3c 01 	sts	0x013C, r24
 e46:	80 91 3a 01 	lds	r24, 0x013A
 e4a:	8f 5f       	subi	r24, 0xFF	; 255
 e4c:	80 93 3a 01 	sts	0x013A, r24
 e50:	80 91 3a 01 	lds	r24, 0x013A
 e54:	8c 33       	cpi	r24, 0x3C	; 60
 e56:	10 f0       	brcs	.+4      	; 0xe5c <__vector_14+0x36>
 e58:	10 92 3a 01 	sts	0x013A, r1
 e5c:	10 92 21 01 	sts	0x0121, r1
 e60:	8f 91       	pop	r24
 e62:	0f 90       	pop	r0
 e64:	0f be       	out	0x3f, r0	; 63
 e66:	0f 90       	pop	r0
 e68:	1f 90       	pop	r1
 e6a:	18 95       	reti

00000e6c <__udivmodqi4>:
 e6c:	99 1b       	sub	r25, r25
 e6e:	79 e0       	ldi	r23, 0x09	; 9
 e70:	04 c0       	rjmp	.+8      	; 0xe7a <__udivmodqi4_ep>

00000e72 <__udivmodqi4_loop>:
 e72:	99 1f       	adc	r25, r25
 e74:	96 17       	cp	r25, r22
 e76:	08 f0       	brcs	.+2      	; 0xe7a <__udivmodqi4_ep>
 e78:	96 1b       	sub	r25, r22

00000e7a <__udivmodqi4_ep>:
 e7a:	88 1f       	adc	r24, r24
 e7c:	7a 95       	dec	r23
 e7e:	c9 f7       	brne	.-14     	; 0xe72 <__udivmodqi4_loop>
 e80:	80 95       	com	r24
 e82:	08 95       	ret

00000e84 <itoa>:
 e84:	45 32       	cpi	r20, 0x25	; 37
 e86:	51 05       	cpc	r21, r1
 e88:	20 f4       	brcc	.+8      	; 0xe92 <itoa+0xe>
 e8a:	42 30       	cpi	r20, 0x02	; 2
 e8c:	10 f0       	brcs	.+4      	; 0xe92 <itoa+0xe>
 e8e:	0c 94 4d 07 	jmp	0xe9a	; 0xe9a <__itoa_ncheck>
 e92:	fb 01       	movw	r30, r22
 e94:	10 82       	st	Z, r1
 e96:	cb 01       	movw	r24, r22
 e98:	08 95       	ret

00000e9a <__itoa_ncheck>:
 e9a:	bb 27       	eor	r27, r27
 e9c:	4a 30       	cpi	r20, 0x0A	; 10
 e9e:	31 f4       	brne	.+12     	; 0xeac <__itoa_ncheck+0x12>
 ea0:	99 23       	and	r25, r25
 ea2:	22 f4       	brpl	.+8      	; 0xeac <__itoa_ncheck+0x12>
 ea4:	bd e2       	ldi	r27, 0x2D	; 45
 ea6:	90 95       	com	r25
 ea8:	81 95       	neg	r24
 eaa:	9f 4f       	sbci	r25, 0xFF	; 255
 eac:	0c 94 59 07 	jmp	0xeb2	; 0xeb2 <__utoa_common>

00000eb0 <__utoa_ncheck>:
 eb0:	bb 27       	eor	r27, r27

00000eb2 <__utoa_common>:
 eb2:	fb 01       	movw	r30, r22
 eb4:	55 27       	eor	r21, r21
 eb6:	aa 27       	eor	r26, r26
 eb8:	88 0f       	add	r24, r24
 eba:	99 1f       	adc	r25, r25
 ebc:	aa 1f       	adc	r26, r26
 ebe:	a4 17       	cp	r26, r20
 ec0:	10 f0       	brcs	.+4      	; 0xec6 <__utoa_common+0x14>
 ec2:	a4 1b       	sub	r26, r20
 ec4:	83 95       	inc	r24
 ec6:	50 51       	subi	r21, 0x10	; 16
 ec8:	b9 f7       	brne	.-18     	; 0xeb8 <__utoa_common+0x6>
 eca:	a0 5d       	subi	r26, 0xD0	; 208
 ecc:	aa 33       	cpi	r26, 0x3A	; 58
 ece:	08 f0       	brcs	.+2      	; 0xed2 <__utoa_common+0x20>
 ed0:	a9 5d       	subi	r26, 0xD9	; 217
 ed2:	a1 93       	st	Z+, r26
 ed4:	00 97       	sbiw	r24, 0x00	; 0
 ed6:	79 f7       	brne	.-34     	; 0xeb6 <__utoa_common+0x4>
 ed8:	b1 11       	cpse	r27, r1
 eda:	b1 93       	st	Z+, r27
 edc:	11 92       	st	Z+, r1
 ede:	cb 01       	movw	r24, r22
 ee0:	0c 94 72 07 	jmp	0xee4	; 0xee4 <strrev>

00000ee4 <strrev>:
 ee4:	dc 01       	movw	r26, r24
 ee6:	fc 01       	movw	r30, r24
 ee8:	67 2f       	mov	r22, r23
 eea:	71 91       	ld	r23, Z+
 eec:	77 23       	and	r23, r23
 eee:	e1 f7       	brne	.-8      	; 0xee8 <strrev+0x4>
 ef0:	32 97       	sbiw	r30, 0x02	; 2
 ef2:	04 c0       	rjmp	.+8      	; 0xefc <strrev+0x18>
 ef4:	7c 91       	ld	r23, X
 ef6:	6d 93       	st	X+, r22
 ef8:	70 83       	st	Z, r23
 efa:	62 91       	ld	r22, -Z
 efc:	ae 17       	cp	r26, r30
 efe:	bf 07       	cpc	r27, r31
 f00:	c8 f3       	brcs	.-14     	; 0xef4 <strrev+0x10>
 f02:	08 95       	ret

00000f04 <_exit>:
 f04:	f8 94       	cli

00000f06 <__stop_program>:
 f06:	ff cf       	rjmp	.-2      	; 0xf06 <__stop_program>
